Archive member included to satisfy reference by file (symbol)

contiki-srf06-cc26xx.a(contiki-main.o)
                              obj_srf06-cc26xx/startup_gcc.o (main)
contiki-srf06-cc26xx.a(sensors.o)
                              border-router.co (sensors_event)
contiki-srf06-cc26xx.a(leds.o)
                              contiki-srf06-cc26xx.a(contiki-main.o) (leds_init)
contiki-srf06-cc26xx.a(leds-arch.o)
                              contiki-srf06-cc26xx.a(leds.o) (leds_arch_init)
contiki-srf06-cc26xx.a(sensortag-senso)
                              contiki-srf06-cc26xx.a(sensors.o) (sensors_flags)
contiki-srf06-cc26xx.a(bmp-280-sensor.)
                              contiki-srf06-cc26xx.a(sensortag-senso) (bmp_280_sensor)
contiki-srf06-cc26xx.a(tmp-007-sensor.)
                              contiki-srf06-cc26xx.a(sensortag-senso) (tmp_007_sensor)
contiki-srf06-cc26xx.a(opt-3001-sensor)
                              contiki-srf06-cc26xx.a(sensortag-senso) (opt_3001_sensor)
contiki-srf06-cc26xx.a(hdc-1000-sensor)
                              contiki-srf06-cc26xx.a(sensortag-senso) (hdc_1000_sensor)
contiki-srf06-cc26xx.a(mpu-9250-sensor)
                              contiki-srf06-cc26xx.a(sensortag-senso) (mpu_9250_sensor)
contiki-srf06-cc26xx.a(button-sensor.o)
                              contiki-srf06-cc26xx.a(sensortag-senso) (button_right_sensor)
contiki-srf06-cc26xx.a(reed-relay.o)
                              contiki-srf06-cc26xx.a(sensortag-senso) (reed_relay_sensor)
contiki-srf06-cc26xx.a(board.o)
                              contiki-srf06-cc26xx.a(contiki-main.o) (board_init)
contiki-srf06-cc26xx.a(board-i2c.o)
                              contiki-srf06-cc26xx.a(board.o) (board_i2c_wakeup)
contiki-srf06-cc26xx.a(clock.o)
                              contiki-srf06-cc26xx.a(contiki-main.o) (clock_init)
contiki-srf06-cc26xx.a(rtimer-arch.o)
                              contiki-srf06-cc26xx.a(mpu-9250-sensor) (rtimer_arch_now)
contiki-srf06-cc26xx.a(soc-rtc.o)
                              contiki-srf06-cc26xx.a(contiki-main.o) (soc_rtc_init)
contiki-srf06-cc26xx.a(contiki-watchdo)
                              contiki-srf06-cc26xx.a(contiki-main.o) (watchdog_init)
contiki-srf06-cc26xx.a(putchar.o)
                              border-router.co (putchar)
contiki-srf06-cc26xx.a(ieee-addr.o)
                              contiki-srf06-cc26xx.a(contiki-main.o) (ieee_addr_cpy_to)
contiki-srf06-cc26xx.a(slip-arch.o)
                              obj_srf06-cc26xx/slip-bridge.o (slip_arch_init)
contiki-srf06-cc26xx.a(slip.o)
                              obj_srf06-cc26xx/slip-bridge.o (slip_set_input_callback)
contiki-srf06-cc26xx.a(cc26xx-uart.o)
                              contiki-srf06-cc26xx.a(contiki-main.o) (cc26xx_uart_init)
contiki-srf06-cc26xx.a(lpm.o)
                              contiki-srf06-cc26xx.a(button-sensor.o) (lpm_shutdown)
contiki-srf06-cc26xx.a(gpio-interrupt.)
                              contiki-srf06-cc26xx.a(button-sensor.o) (gpio_interrupt_register_handler)
contiki-srf06-cc26xx.a(oscillators.o)
                              contiki-srf06-cc26xx.a(contiki-main.o) (oscillators_select_lf_xosc)
contiki-srf06-cc26xx.a(ieee-mode.o)
                              contiki-srf06-cc26xx.a(contiki-main.o) (ieee_mode_driver)
contiki-srf06-cc26xx.a(random.o)
                              contiki-srf06-cc26xx.a(contiki-main.o) (random_init)
contiki-srf06-cc26xx.a(soc-trng.o)
                              contiki-srf06-cc26xx.a(random.o) (soc_trng_rand_synchronous)
contiki-srf06-cc26xx.a(dbg-printf.o)
                              obj_srf06-cc26xx/slip-bridge.o (printf)
contiki-srf06-cc26xx.a(strformat.o)
                              contiki-srf06-cc26xx.a(dbg-printf.o) (format_str_v)
contiki-srf06-cc26xx.a(ctimer.o)
                              contiki-srf06-cc26xx.a(contiki-main.o) (ctimer_init)
contiki-srf06-cc26xx.a(autostart.o)
                              contiki-srf06-cc26xx.a(contiki-main.o) (autostart_start)
contiki-srf06-cc26xx.a(energest.o)
                              contiki-srf06-cc26xx.a(contiki-main.o) (energest_init)
contiki-srf06-cc26xx.a(etimer.o)
                              contiki-srf06-cc26xx.a(clock.o) (etimer_request_poll)
contiki-srf06-cc26xx.a(process.o)
                              contiki-srf06-cc26xx.a(sensors.o) (process_alloc_event)
contiki-srf06-cc26xx.a(rtimer.o)
                              contiki-srf06-cc26xx.a(contiki-main.o) (rtimer_init)
contiki-srf06-cc26xx.a(timer.o)
                              contiki-srf06-cc26xx.a(button-sensor.o) (timer_set)
contiki-srf06-cc26xx.a(serial-line.o)
                              contiki-srf06-cc26xx.a(contiki-main.o) (serial_line_init)
contiki-srf06-cc26xx.a(list.o)
                              contiki-srf06-cc26xx.a(lpm.o) (list_init)
contiki-srf06-cc26xx.a(ringbuf.o)
                              contiki-srf06-cc26xx.a(serial-line.o) (ringbuf_init)
contiki-srf06-cc26xx.a(uip-ds6.o)
                              border-router.co (uip_ds6_if)
contiki-srf06-cc26xx.a(uip-ds6-route.o)
                              contiki-srf06-cc26xx.a(uip-ds6.o) (uip_ds6_route_init)
contiki-srf06-cc26xx.a(uip6.o)
                              border-router.co (uip_aligned_buf)
contiki-srf06-cc26xx.a(uip-ds6-nbr.o)
                              contiki-srf06-cc26xx.a(uip-ds6.o) (uip_ds6_neighbors_init)
contiki-srf06-cc26xx.a(uip-nd6.o)
                              contiki-srf06-cc26xx.a(uip6.o) (uip_nd6_init)
contiki-srf06-cc26xx.a(sicslowpan.o)
                              contiki-srf06-cc26xx.a(contiki-main.o) (sicslowpan_driver)
contiki-srf06-cc26xx.a(tcpip.o)
                              contiki-srf06-cc26xx.a(sicslowpan.o) (tcpip_set_outputfunc)
contiki-srf06-cc26xx.a(uip-debug.o)
                              border-router.co (uip_debug_ipaddr_print)
contiki-srf06-cc26xx.a(rpl-dag.o)
                              border-router.co (rpl_set_prefix)
contiki-srf06-cc26xx.a(rpl-timers.o)
                              contiki-srf06-cc26xx.a(rpl-dag.o) (rpl_reset_dio_timer)
contiki-srf06-cc26xx.a(rpl-ext-header.)
                              contiki-srf06-cc26xx.a(uip6.o) (rpl_verify_hbh_header)
contiki-srf06-cc26xx.a(rpl.o)
                              contiki-srf06-cc26xx.a(rpl-timers.o) (rpl_get_mode)
contiki-srf06-cc26xx.a(rpl-mrhof.o)
                              contiki-srf06-cc26xx.a(rpl-dag.o) (rpl_mrhof)
contiki-srf06-cc26xx.a(rpl-icmp6.o)
                              contiki-srf06-cc26xx.a(rpl-dag.o) (rpl_icmp6_update_nbr_table)
contiki-srf06-cc26xx.a(setup.o)
                              obj_srf06-cc26xx/startup_gcc.o (NOROM_SetupTrimDevice)
contiki-srf06-cc26xx.a(adi.o)
                              contiki-srf06-cc26xx.a(oscillators.o) (SafeHapiVoid)
contiki-srf06-cc26xx.a(ddi.o)
                              contiki-srf06-cc26xx.a(oscillators.o) (NOROM_DDI16BitfieldWrite)
contiki-srf06-cc26xx.a(pwr_ctrl.o)
                              contiki-srf06-cc26xx.a(lpm.o) (NOROM_PowerCtrlSourceSet)
contiki-srf06-cc26xx.a(osc.o)
                              contiki-srf06-cc26xx.a(oscillators.o) (NOROM_OSCClockSourceSet)
contiki-srf06-cc26xx.a(trng.o)
                              contiki-srf06-cc26xx.a(soc-trng.o) (NOROM_TRNGConfigure)
contiki-srf06-cc26xx.a(cpu.o)
                              contiki-srf06-cc26xx.a(contiki-main.o) (NOROM_CPUcpsid)
contiki-srf06-cc26xx.a(sys_ctrl.o)
                              contiki-srf06-cc26xx.a(lpm.o) (NOROM_SysCtrlSetRechargeBeforePowerDown)
contiki-srf06-cc26xx.a(aon_rtc.o)
                              contiki-srf06-cc26xx.a(rtimer-arch.o) (NOROM_AONRTCCurrentCompareValueGet)
contiki-srf06-cc26xx.a(chipinfo.o)
                              contiki-srf06-cc26xx.a(contiki-main.o) (NOROM_ChipInfo_GetSupportedProtocol_BV)
contiki-srf06-cc26xx.a(queuebuf.o)
                              contiki-srf06-cc26xx.a(contiki-main.o) (queuebuf_init)
contiki-srf06-cc26xx.a(nbr-table.o)
                              contiki-srf06-cc26xx.a(uip-ds6-route.o) (nbr_table_register)
contiki-srf06-cc26xx.a(packetbuf.o)
                              contiki-srf06-cc26xx.a(sicslowpan.o) (packetbuf_set_datalen)
contiki-srf06-cc26xx.a(netstack.o)
                              contiki-srf06-cc26xx.a(contiki-main.o) (netstack_init)
contiki-srf06-cc26xx.a(linkaddr.o)
                              contiki-srf06-cc26xx.a(sicslowpan.o) (linkaddr_copy)
contiki-srf06-cc26xx.a(link-stats.o)
                              contiki-srf06-cc26xx.a(rpl-dag.o) (link_stats_from_lladdr)
contiki-srf06-cc26xx.a(framer-802154.o)
                              contiki-srf06-cc26xx.a(sicslowpan.o) (framer_802154)
contiki-srf06-cc26xx.a(csma.o)
                              border-router.co (csma_driver)
contiki-srf06-cc26xx.a(frame802154.o)
                              contiki-srf06-cc26xx.a(framer-802154.o) (frame802154_get_pan_id)
contiki-srf06-cc26xx.a(mac.o)
                              contiki-srf06-cc26xx.a(csma.o) (mac_call_sent_callback)
contiki-srf06-cc26xx.a(contikimac.o)
                              contiki-srf06-cc26xx.a(contiki-main.o) (contikimac_driver)
contiki-srf06-cc26xx.a(nullsec.o)
                              contiki-srf06-cc26xx.a(sicslowpan.o) (nullsec_driver)
contiki-srf06-cc26xx.a(sensor-common.o)
                              contiki-srf06-cc26xx.a(bmp-280-sensor.) (sensor_common_read_reg)
contiki-srf06-cc26xx.a(ext-flash.o)
                              contiki-srf06-cc26xx.a(board.o) (ext_flash_init)
contiki-srf06-cc26xx.a(buzzer.o)
                              contiki-srf06-cc26xx.a(board.o) (buzzer_init)
contiki-srf06-cc26xx.a(board-spi.o)
                              contiki-srf06-cc26xx.a(ext-flash.o) (board_spi_write)
contiki-srf06-cc26xx.a(aux-ctrl.o)
                              contiki-srf06-cc26xx.a(lpm.o) (aux_ctrl_power_up)
contiki-srf06-cc26xx.a(rf-core.o)
                              contiki-srf06-cc26xx.a(ieee-mode.o) (rf_core_is_accessible)
contiki-srf06-cc26xx.a(rf-ble.o)
                              contiki-srf06-cc26xx.a(ieee-mode.o) (rf_ble_is_active)
contiki-srf06-cc26xx.a(stimer.o)
                              contiki-srf06-cc26xx.a(uip-ds6.o) (stimer_set)
contiki-srf06-cc26xx.a(memb.o)
                              contiki-srf06-cc26xx.a(uip-ds6-route.o) (memb_init)
contiki-srf06-cc26xx.a(uip-icmp6.o)
                              contiki-srf06-cc26xx.a(uip6.o) (uip_icmp6_input)
contiki-srf06-cc26xx.a(rpl-nbr-policy.)
                              contiki-srf06-cc26xx.a(nbr-table.o) (rpl_nbr_policy_find_removable)
contiki-srf06-cc26xx.a(setup_rom.o)
                              contiki-srf06-cc26xx.a(setup.o) (NOROM_SetupAfterColdResetWakeupFromShutDownCfg1)
contiki-srf06-cc26xx.a(aon_batmon.o)
                              contiki-srf06-cc26xx.a(osc.o) (NOROM_AONBatMonTemperatureGetDegC)
contiki-srf06-cc26xx.a(mac-sequence.o)
                              contiki-srf06-cc26xx.a(contikimac.o) (mac_sequence_is_duplicate)
/usr/lib/gcc/arm-none-eabi/4.8/../../../arm-none-eabi/lib/armv7-m/libm.a(lib_a-w_exp2.o)
                              contiki-srf06-cc26xx.a(opt-3001-sensor) (exp2)
/usr/lib/gcc/arm-none-eabi/4.8/../../../arm-none-eabi/lib/armv7-m/libm.a(lib_a-w_pow.o)
                              /usr/lib/gcc/arm-none-eabi/4.8/../../../arm-none-eabi/lib/armv7-m/libm.a(lib_a-w_exp2.o) (pow)
/usr/lib/gcc/arm-none-eabi/4.8/../../../arm-none-eabi/lib/armv7-m/libm.a(lib_a-e_pow.o)
                              /usr/lib/gcc/arm-none-eabi/4.8/../../../arm-none-eabi/lib/armv7-m/libm.a(lib_a-w_pow.o) (__ieee754_pow)
/usr/lib/gcc/arm-none-eabi/4.8/../../../arm-none-eabi/lib/armv7-m/libm.a(lib_a-e_sqrt.o)
                              /usr/lib/gcc/arm-none-eabi/4.8/../../../arm-none-eabi/lib/armv7-m/libm.a(lib_a-e_pow.o) (__ieee754_sqrt)
/usr/lib/gcc/arm-none-eabi/4.8/../../../arm-none-eabi/lib/armv7-m/libm.a(lib_a-s_fabs.o)
                              /usr/lib/gcc/arm-none-eabi/4.8/../../../arm-none-eabi/lib/armv7-m/libm.a(lib_a-e_pow.o) (fabs)
/usr/lib/gcc/arm-none-eabi/4.8/../../../arm-none-eabi/lib/armv7-m/libm.a(lib_a-s_finite.o)
                              /usr/lib/gcc/arm-none-eabi/4.8/../../../arm-none-eabi/lib/armv7-m/libm.a(lib_a-w_pow.o) (finite)
/usr/lib/gcc/arm-none-eabi/4.8/../../../arm-none-eabi/lib/armv7-m/libm.a(lib_a-s_fpclassify.o)
                              /usr/lib/gcc/arm-none-eabi/4.8/../../../arm-none-eabi/lib/armv7-m/libm.a(lib_a-w_pow.o) (__fpclassifyd)
/usr/lib/gcc/arm-none-eabi/4.8/../../../arm-none-eabi/lib/armv7-m/libm.a(lib_a-s_lib_ver.o)
                              /usr/lib/gcc/arm-none-eabi/4.8/../../../arm-none-eabi/lib/armv7-m/libm.a(lib_a-w_pow.o) (__fdlib_version)
/usr/lib/gcc/arm-none-eabi/4.8/../../../arm-none-eabi/lib/armv7-m/libm.a(lib_a-s_matherr.o)
                              /usr/lib/gcc/arm-none-eabi/4.8/../../../arm-none-eabi/lib/armv7-m/libm.a(lib_a-w_pow.o) (matherr)
/usr/lib/gcc/arm-none-eabi/4.8/../../../arm-none-eabi/lib/armv7-m/libm.a(lib_a-s_nan.o)
                              /usr/lib/gcc/arm-none-eabi/4.8/../../../arm-none-eabi/lib/armv7-m/libm.a(lib_a-e_pow.o) (nan)
/usr/lib/gcc/arm-none-eabi/4.8/../../../arm-none-eabi/lib/armv7-m/libm.a(lib_a-s_rint.o)
                              /usr/lib/gcc/arm-none-eabi/4.8/../../../arm-none-eabi/lib/armv7-m/libm.a(lib_a-w_pow.o) (rint)
/usr/lib/gcc/arm-none-eabi/4.8/../../../arm-none-eabi/lib/armv7-m/libm.a(lib_a-s_scalbn.o)
                              /usr/lib/gcc/arm-none-eabi/4.8/../../../arm-none-eabi/lib/armv7-m/libm.a(lib_a-e_pow.o) (scalbn)
/usr/lib/gcc/arm-none-eabi/4.8/../../../arm-none-eabi/lib/armv7-m/libm.a(lib_a-s_copysign.o)
                              /usr/lib/gcc/arm-none-eabi/4.8/../../../arm-none-eabi/lib/armv7-m/libm.a(lib_a-s_scalbn.o) (copysign)
/usr/lib/gcc/arm-none-eabi/4.8/armv7-m/libgcc.a(_arm_addsubdf3.o)
                              contiki-srf06-cc26xx.a(hdc-1000-sensor) (__aeabi_dsub)
/usr/lib/gcc/arm-none-eabi/4.8/armv7-m/libgcc.a(_arm_muldivdf3.o)
                              contiki-srf06-cc26xx.a(opt-3001-sensor) (__aeabi_dmul)
/usr/lib/gcc/arm-none-eabi/4.8/armv7-m/libgcc.a(_arm_cmpdf2.o)
                              /usr/lib/gcc/arm-none-eabi/4.8/../../../arm-none-eabi/lib/armv7-m/libm.a(lib_a-w_pow.o) (__aeabi_dcmpeq)
/usr/lib/gcc/arm-none-eabi/4.8/armv7-m/libgcc.a(_arm_truncdfsf2.o)
                              contiki-srf06-cc26xx.a(opt-3001-sensor) (__aeabi_d2f)
/usr/lib/gcc/arm-none-eabi/4.8/armv7-m/libgcc.a(_arm_addsubsf3.o)
                              contiki-srf06-cc26xx.a(tmp-007-sensor.) (__aeabi_i2f)
/usr/lib/gcc/arm-none-eabi/4.8/armv7-m/libgcc.a(_arm_muldivsf3.o)
                              contiki-srf06-cc26xx.a(tmp-007-sensor.) (__aeabi_fmul)
/usr/lib/gcc/arm-none-eabi/4.8/armv7-m/libgcc.a(_arm_fixsfsi.o)
                              contiki-srf06-cc26xx.a(tmp-007-sensor.) (__aeabi_f2iz)
/usr/lib/gcc/arm-none-eabi/4.8/armv7-m/libgcc.a(_aeabi_uldivmod.o)
                              contiki-srf06-cc26xx.a(ieee-mode.o) (__aeabi_uldivmod)
/usr/lib/gcc/arm-none-eabi/4.8/armv7-m/libgcc.a(bpabi.o)
                              /usr/lib/gcc/arm-none-eabi/4.8/armv7-m/libgcc.a(_aeabi_uldivmod.o) (__gnu_uldivmod_helper)
/usr/lib/gcc/arm-none-eabi/4.8/armv7-m/libgcc.a(_dvmd_tls.o)
                              /usr/lib/gcc/arm-none-eabi/4.8/armv7-m/libgcc.a(_aeabi_uldivmod.o) (__aeabi_ldiv0)
/usr/lib/gcc/arm-none-eabi/4.8/armv7-m/libgcc.a(_divdi3.o)
                              /usr/lib/gcc/arm-none-eabi/4.8/armv7-m/libgcc.a(bpabi.o) (__divdi3)
/usr/lib/gcc/arm-none-eabi/4.8/armv7-m/libgcc.a(_udivdi3.o)
                              /usr/lib/gcc/arm-none-eabi/4.8/armv7-m/libgcc.a(bpabi.o) (__udivdi3)
/usr/lib/gcc/arm-none-eabi/4.8/../../../arm-none-eabi/lib/armv7-m/libc.a(lib_a-errno.o)
                              /usr/lib/gcc/arm-none-eabi/4.8/../../../arm-none-eabi/lib/armv7-m/libm.a(lib_a-w_pow.o) (__errno)
/usr/lib/gcc/arm-none-eabi/4.8/../../../arm-none-eabi/lib/armv7-m/libc.a(lib_a-impure.o)
                              /usr/lib/gcc/arm-none-eabi/4.8/../../../arm-none-eabi/lib/armv7-m/libc.a(lib_a-errno.o) (_impure_ptr)
/usr/lib/gcc/arm-none-eabi/4.8/../../../arm-none-eabi/lib/armv7-m/libc.a(lib_a-memcmp.o)
                              obj_srf06-cc26xx/slip-bridge.o (memcmp)
/usr/lib/gcc/arm-none-eabi/4.8/../../../arm-none-eabi/lib/armv7-m/libc.a(lib_a-memcpy.o)
                              contiki-srf06-cc26xx.a(ieee-mode.o) (memcpy)
/usr/lib/gcc/arm-none-eabi/4.8/../../../arm-none-eabi/lib/armv7-m/libc.a(lib_a-memmove.o)
                              contiki-srf06-cc26xx.a(uip6.o) (memmove)
/usr/lib/gcc/arm-none-eabi/4.8/../../../arm-none-eabi/lib/armv7-m/libc.a(lib_a-memset.o)
                              obj_srf06-cc26xx/slip-bridge.o (memset)
/usr/lib/gcc/arm-none-eabi/4.8/../../../arm-none-eabi/lib/armv7-m/libc.a(lib_a-strlen.o)
                              contiki-srf06-cc26xx.a(sensors.o) (strlen)
/usr/lib/gcc/arm-none-eabi/4.8/../../../arm-none-eabi/lib/armv7-m/libc.a(lib_a-strncmp.o)
                              contiki-srf06-cc26xx.a(sensors.o) (strncmp)

Allocating common symbols
Common symbol       size              file

uip_ds6_timer_ra    0x8               contiki-srf06-cc26xx.a(uip-ds6.o)
uip_ds6_if          0xf8              contiki-srf06-cc26xx.a(uip-ds6.o)
uip_ds6_netif_addr_list_offset
                    0x1               contiki-srf06-cc26xx.a(uip-ds6.o)
uip_len             0x2               contiki-srf06-cc26xx.a(uip6.o)
slip_active         0x1               contiki-srf06-cc26xx.a(slip.o)
uip_ds6_addr_size   0x1               contiki-srf06-cc26xx.a(uip-ds6.o)
uip_sappdata        0x4               contiki-srf06-cc26xx.a(uip6.o)
packetbuf_addrs     0x10              contiki-srf06-cc26xx.a(packetbuf.o)
uip_acc32           0x4               contiki-srf06-cc26xx.a(uip6.o)
uip_ds6_prefix_list
                    0x60              contiki-srf06-cc26xx.a(uip-ds6.o)
uip_lladdr          0x8               contiki-srf06-cc26xx.a(uip6.o)
uip_aligned_buf     0x8c              contiki-srf06-cc26xx.a(uip6.o)
uip_flags           0x1               contiki-srf06-cc26xx.a(uip6.o)
periodic_timer      0x20              contiki-srf06-cc26xx.a(link-stats.o)
uip_ds6_timer_periodic
                    0x10              contiki-srf06-cc26xx.a(uip-ds6.o)
uip_next_hdr        0x4               contiki-srf06-cc26xx.a(uip6.o)
linkaddr_node_addr  0x8               contiki-srf06-cc26xx.a(linkaddr.o)
default_instance    0x4               contiki-srf06-cc26xx.a(rpl-dag.o)
uip_udp_conn        0x4               contiki-srf06-cc26xx.a(uip6.o)
packetbuf_attrs     0x1e              contiki-srf06-cc26xx.a(packetbuf.o)
instance_table      0x154             contiki-srf06-cc26xx.a(rpl-dag.o)
uip_appdata         0x4               contiki-srf06-cc26xx.a(uip6.o)
uip_conn            0x4               contiki-srf06-cc26xx.a(uip6.o)
tcpip_event         0x1               contiki-srf06-cc26xx.a(tcpip.o)
uip_conns           0x1e0             contiki-srf06-cc26xx.a(uip6.o)
uip_icmp6_conns     0x8               contiki-srf06-cc26xx.a(uip6.o)
t0                  0x4               contiki-srf06-cc26xx.a(mpu-9250-sensor)
uip_listenports     0x28              contiki-srf06-cc26xx.a(uip6.o)
sensors_flags       0x9               contiki-srf06-cc26xx.a(sensortag-senso)
serial_line_event_message
                    0x1               contiki-srf06-cc26xx.a(serial-line.o)
sensors_event       0x1               contiki-srf06-cc26xx.a(sensors.o)
tcpip_icmp6_event   0x1               contiki-srf06-cc26xx.a(tcpip.o)
uip_slen            0x2               contiki-srf06-cc26xx.a(uip6.o)
uip_udp_conns       0x140             contiki-srf06-cc26xx.a(uip6.o)

Discarded input sections

 .text          0x0000000000000000        0x0 obj_srf06-cc26xx/fault-handlers.o
 .data          0x0000000000000000        0x0 obj_srf06-cc26xx/fault-handlers.o
 .bss           0x0000000000000000        0x0 obj_srf06-cc26xx/fault-handlers.o
 .text          0x0000000000000000        0x0 obj_srf06-cc26xx/ccfg.o
 .data          0x0000000000000000        0x0 obj_srf06-cc26xx/ccfg.o
 .bss           0x0000000000000000        0x0 obj_srf06-cc26xx/ccfg.o
 .text          0x0000000000000000        0x0 obj_srf06-cc26xx/startup_gcc.o
 .data          0x0000000000000000        0x0 obj_srf06-cc26xx/startup_gcc.o
 .bss           0x0000000000000000        0x0 obj_srf06-cc26xx/startup_gcc.o
 .text.FaultISRHandler
                0x0000000000000000        0x2 obj_srf06-cc26xx/startup_gcc.o
 .text          0x0000000000000000        0x0 border-router.co
 .data          0x0000000000000000        0x0 border-router.co
 .bss           0x0000000000000000        0x0 border-router.co
 .text          0x0000000000000000        0x0 obj_srf06-cc26xx/slip-bridge.o
 .data          0x0000000000000000        0x0 obj_srf06-cc26xx/slip-bridge.o
 .bss           0x0000000000000000        0x0 obj_srf06-cc26xx/slip-bridge.o
 .text          0x0000000000000000        0x0 contiki-srf06-cc26xx.a(contiki-main.o)
 .data          0x0000000000000000        0x0 contiki-srf06-cc26xx.a(contiki-main.o)
 .bss           0x0000000000000000        0x0 contiki-srf06-cc26xx.a(contiki-main.o)
 .text          0x0000000000000000        0x0 contiki-srf06-cc26xx.a(sensors.o)
 .data          0x0000000000000000        0x0 contiki-srf06-cc26xx.a(sensors.o)
 .bss           0x0000000000000000        0x0 contiki-srf06-cc26xx.a(sensors.o)
 .text.sensors_first
                0x0000000000000000        0xc contiki-srf06-cc26xx.a(sensors.o)
 .text.sensors_next
                0x0000000000000000       0x2c contiki-srf06-cc26xx.a(sensors.o)
 .text.sensors_find
                0x0000000000000000       0x40 contiki-srf06-cc26xx.a(sensors.o)
 .text          0x0000000000000000        0x0 contiki-srf06-cc26xx.a(leds.o)
 .data          0x0000000000000000        0x0 contiki-srf06-cc26xx.a(leds.o)
 .bss           0x0000000000000000        0x0 contiki-srf06-cc26xx.a(leds.o)
 .text.leds_get
                0x0000000000000000        0x4 contiki-srf06-cc26xx.a(leds.o)
 .text.leds_set
                0x0000000000000000        0xc contiki-srf06-cc26xx.a(leds.o)
 .text.leds_toggle
                0x0000000000000000       0x10 contiki-srf06-cc26xx.a(leds.o)
 .text.leds_blink
                0x0000000000000000       0x28 contiki-srf06-cc26xx.a(leds.o)
 .text          0x0000000000000000        0x0 contiki-srf06-cc26xx.a(leds-arch.o)
 .data          0x0000000000000000        0x0 contiki-srf06-cc26xx.a(leds-arch.o)
 .bss           0x0000000000000000        0x0 contiki-srf06-cc26xx.a(leds-arch.o)
 .text.leds_arch_get
                0x0000000000000000        0xc contiki-srf06-cc26xx.a(leds-arch.o)
 .text          0x0000000000000000        0x0 contiki-srf06-cc26xx.a(sensortag-senso)
 .data          0x0000000000000000        0x0 contiki-srf06-cc26xx.a(sensortag-senso)
 .bss           0x0000000000000000        0x0 contiki-srf06-cc26xx.a(sensortag-senso)
 .text          0x0000000000000000        0x0 contiki-srf06-cc26xx.a(bmp-280-sensor.)
 .data          0x0000000000000000        0x0 contiki-srf06-cc26xx.a(bmp-280-sensor.)
 .bss           0x0000000000000000        0x0 contiki-srf06-cc26xx.a(bmp-280-sensor.)
 .text          0x0000000000000000        0x0 contiki-srf06-cc26xx.a(tmp-007-sensor.)
 .data          0x0000000000000000        0x0 contiki-srf06-cc26xx.a(tmp-007-sensor.)
 .bss           0x0000000000000000        0x0 contiki-srf06-cc26xx.a(tmp-007-sensor.)
 .text          0x0000000000000000        0x0 contiki-srf06-cc26xx.a(opt-3001-sensor)
 .data          0x0000000000000000        0x0 contiki-srf06-cc26xx.a(opt-3001-sensor)
 .bss           0x0000000000000000        0x0 contiki-srf06-cc26xx.a(opt-3001-sensor)
 .text          0x0000000000000000        0x0 contiki-srf06-cc26xx.a(hdc-1000-sensor)
 .data          0x0000000000000000        0x0 contiki-srf06-cc26xx.a(hdc-1000-sensor)
 .bss           0x0000000000000000        0x0 contiki-srf06-cc26xx.a(hdc-1000-sensor)
 .text          0x0000000000000000        0x0 contiki-srf06-cc26xx.a(mpu-9250-sensor)
 .data          0x0000000000000000        0x0 contiki-srf06-cc26xx.a(mpu-9250-sensor)
 .bss           0x0000000000000000        0x0 contiki-srf06-cc26xx.a(mpu-9250-sensor)
 .text          0x0000000000000000        0x0 contiki-srf06-cc26xx.a(button-sensor.o)
 .data          0x0000000000000000        0x0 contiki-srf06-cc26xx.a(button-sensor.o)
 .bss           0x0000000000000000        0x0 contiki-srf06-cc26xx.a(button-sensor.o)
 .text          0x0000000000000000        0x0 contiki-srf06-cc26xx.a(reed-relay.o)
 .data          0x0000000000000000        0x0 contiki-srf06-cc26xx.a(reed-relay.o)
 .bss           0x0000000000000000        0x0 contiki-srf06-cc26xx.a(reed-relay.o)
 .text          0x0000000000000000        0x0 contiki-srf06-cc26xx.a(board.o)
 .data          0x0000000000000000        0x0 contiki-srf06-cc26xx.a(board.o)
 .bss           0x0000000000000000        0x0 contiki-srf06-cc26xx.a(board.o)
 .text          0x0000000000000000        0x0 contiki-srf06-cc26xx.a(board-i2c.o)
 .data          0x0000000000000000        0x0 contiki-srf06-cc26xx.a(board-i2c.o)
 .bss           0x0000000000000000        0x0 contiki-srf06-cc26xx.a(board-i2c.o)
 .text          0x0000000000000000        0x0 contiki-srf06-cc26xx.a(clock.o)
 .data          0x0000000000000000        0x0 contiki-srf06-cc26xx.a(clock.o)
 .bss           0x0000000000000000        0x0 contiki-srf06-cc26xx.a(clock.o)
 .text.clock_wait
                0x0000000000000000       0x16 contiki-srf06-cc26xx.a(clock.o)
 .text.clock_delay_usec
                0x0000000000000000       0x80 contiki-srf06-cc26xx.a(clock.o)
 .text.clock_delay
                0x0000000000000000        0x6 contiki-srf06-cc26xx.a(clock.o)
 .text          0x0000000000000000        0x0 contiki-srf06-cc26xx.a(rtimer-arch.o)
 .data          0x0000000000000000        0x0 contiki-srf06-cc26xx.a(rtimer-arch.o)
 .bss           0x0000000000000000        0x0 contiki-srf06-cc26xx.a(rtimer-arch.o)
 .text          0x0000000000000000        0x0 contiki-srf06-cc26xx.a(soc-rtc.o)
 .data          0x0000000000000000        0x0 contiki-srf06-cc26xx.a(soc-rtc.o)
 .bss           0x0000000000000000        0x0 contiki-srf06-cc26xx.a(soc-rtc.o)
 .text.soc_rtc_get_next_trigger
                0x0000000000000000       0x24 contiki-srf06-cc26xx.a(soc-rtc.o)
 .text          0x0000000000000000        0x0 contiki-srf06-cc26xx.a(contiki-watchdo)
 .data          0x0000000000000000        0x0 contiki-srf06-cc26xx.a(contiki-watchdo)
 .bss           0x0000000000000000        0x0 contiki-srf06-cc26xx.a(contiki-watchdo)
 .text.watchdog_stop
                0x0000000000000000       0x18 contiki-srf06-cc26xx.a(contiki-watchdo)
 .text.watchdog_reboot
                0x0000000000000000        0x8 contiki-srf06-cc26xx.a(contiki-watchdo)
 .text          0x0000000000000000        0x0 contiki-srf06-cc26xx.a(putchar.o)
 .data          0x0000000000000000        0x0 contiki-srf06-cc26xx.a(putchar.o)
 .bss           0x0000000000000000        0x0 contiki-srf06-cc26xx.a(putchar.o)
 .text          0x0000000000000000        0x0 contiki-srf06-cc26xx.a(ieee-addr.o)
 .data          0x0000000000000000        0x0 contiki-srf06-cc26xx.a(ieee-addr.o)
 .bss           0x0000000000000000        0x0 contiki-srf06-cc26xx.a(ieee-addr.o)
 .text          0x0000000000000000        0x0 contiki-srf06-cc26xx.a(slip-arch.o)
 .data          0x0000000000000000        0x0 contiki-srf06-cc26xx.a(slip-arch.o)
 .bss           0x0000000000000000        0x0 contiki-srf06-cc26xx.a(slip-arch.o)
 .text          0x0000000000000000        0x0 contiki-srf06-cc26xx.a(slip.o)
 .data          0x0000000000000000        0x0 contiki-srf06-cc26xx.a(slip.o)
 .bss           0x0000000000000000        0x0 contiki-srf06-cc26xx.a(slip.o)
 .text.slip_write
                0x0000000000000000       0x40 contiki-srf06-cc26xx.a(slip.o)
 .text          0x0000000000000000        0x0 contiki-srf06-cc26xx.a(cc26xx-uart.o)
 .data          0x0000000000000000        0x0 contiki-srf06-cc26xx.a(cc26xx-uart.o)
 .bss           0x0000000000000000        0x0 contiki-srf06-cc26xx.a(cc26xx-uart.o)
 .text          0x0000000000000000        0x0 contiki-srf06-cc26xx.a(lpm.o)
 .data          0x0000000000000000        0x0 contiki-srf06-cc26xx.a(lpm.o)
 .bss           0x0000000000000000        0x0 contiki-srf06-cc26xx.a(lpm.o)
 .text          0x0000000000000000        0x0 contiki-srf06-cc26xx.a(gpio-interrupt.)
 .data          0x0000000000000000        0x0 contiki-srf06-cc26xx.a(gpio-interrupt.)
 .bss           0x0000000000000000        0x0 contiki-srf06-cc26xx.a(gpio-interrupt.)
 .text          0x0000000000000000        0x0 contiki-srf06-cc26xx.a(oscillators.o)
 .data          0x0000000000000000        0x0 contiki-srf06-cc26xx.a(oscillators.o)
 .bss           0x0000000000000000        0x0 contiki-srf06-cc26xx.a(oscillators.o)
 .text          0x0000000000000000        0x0 contiki-srf06-cc26xx.a(ieee-mode.o)
 .data          0x0000000000000000        0x0 contiki-srf06-cc26xx.a(ieee-mode.o)
 .bss           0x0000000000000000        0x0 contiki-srf06-cc26xx.a(ieee-mode.o)
 .text          0x0000000000000000        0x0 contiki-srf06-cc26xx.a(random.o)
 .data          0x0000000000000000        0x0 contiki-srf06-cc26xx.a(random.o)
 .bss           0x0000000000000000        0x0 contiki-srf06-cc26xx.a(random.o)
 .text          0x0000000000000000        0x0 contiki-srf06-cc26xx.a(soc-trng.o)
 .data          0x0000000000000000        0x0 contiki-srf06-cc26xx.a(soc-trng.o)
 .bss           0x0000000000000000        0x0 contiki-srf06-cc26xx.a(soc-trng.o)
 .text.soc_trng_rand_asynchronous
                0x0000000000000000      0x114 contiki-srf06-cc26xx.a(soc-trng.o)
 .text          0x0000000000000000        0x0 contiki-srf06-cc26xx.a(dbg-printf.o)
 .data          0x0000000000000000        0x0 contiki-srf06-cc26xx.a(dbg-printf.o)
 .bss           0x0000000000000000        0x0 contiki-srf06-cc26xx.a(dbg-printf.o)
 .text          0x0000000000000000        0x0 contiki-srf06-cc26xx.a(strformat.o)
 .data          0x0000000000000000        0x0 contiki-srf06-cc26xx.a(strformat.o)
 .bss           0x0000000000000000        0x0 contiki-srf06-cc26xx.a(strformat.o)
 .text.format_str
                0x0000000000000000       0x1a contiki-srf06-cc26xx.a(strformat.o)
 .text          0x0000000000000000        0x0 contiki-srf06-cc26xx.a(ctimer.o)
 .data          0x0000000000000000        0x0 contiki-srf06-cc26xx.a(ctimer.o)
 .bss           0x0000000000000000        0x0 contiki-srf06-cc26xx.a(ctimer.o)
 .text.ctimer_expired
                0x0000000000000000       0x34 contiki-srf06-cc26xx.a(ctimer.o)
 .text          0x0000000000000000        0x0 contiki-srf06-cc26xx.a(autostart.o)
 .data          0x0000000000000000        0x0 contiki-srf06-cc26xx.a(autostart.o)
 .bss           0x0000000000000000        0x0 contiki-srf06-cc26xx.a(autostart.o)
 .text.autostart_exit
                0x0000000000000000       0x12 contiki-srf06-cc26xx.a(autostart.o)
 .text          0x0000000000000000        0x0 contiki-srf06-cc26xx.a(energest.o)
 .data          0x0000000000000000        0x0 contiki-srf06-cc26xx.a(energest.o)
 .bss           0x0000000000000000        0x0 contiki-srf06-cc26xx.a(energest.o)
 .text.energest_type_set
                0x0000000000000000        0x2 contiki-srf06-cc26xx.a(energest.o)
 .text.energest_type_time
                0x0000000000000000        0x4 contiki-srf06-cc26xx.a(energest.o)
 .text.energest_flush
                0x0000000000000000        0x2 contiki-srf06-cc26xx.a(energest.o)
 .text          0x0000000000000000        0x0 contiki-srf06-cc26xx.a(etimer.o)
 .data          0x0000000000000000        0x0 contiki-srf06-cc26xx.a(etimer.o)
 .bss           0x0000000000000000        0x0 contiki-srf06-cc26xx.a(etimer.o)
 .text.etimer_reset_with_new_interval
                0x0000000000000000       0x16 contiki-srf06-cc26xx.a(etimer.o)
 .text.etimer_adjust
                0x0000000000000000        0xa contiki-srf06-cc26xx.a(etimer.o)
 .text.etimer_start_time
                0x0000000000000000        0x4 contiki-srf06-cc26xx.a(etimer.o)
 .text          0x0000000000000000        0x0 contiki-srf06-cc26xx.a(process.o)
 .data          0x0000000000000000        0x0 contiki-srf06-cc26xx.a(process.o)
 .bss           0x0000000000000000        0x0 contiki-srf06-cc26xx.a(process.o)
 .text.process_exit
                0x0000000000000000        0xc contiki-srf06-cc26xx.a(process.o)
 .text.process_is_running
                0x0000000000000000        0xa contiki-srf06-cc26xx.a(process.o)
 .text          0x0000000000000000        0x0 contiki-srf06-cc26xx.a(rtimer.o)
 .data          0x0000000000000000        0x0 contiki-srf06-cc26xx.a(rtimer.o)
 .bss           0x0000000000000000        0x0 contiki-srf06-cc26xx.a(rtimer.o)
 .text          0x0000000000000000        0x0 contiki-srf06-cc26xx.a(timer.o)
 .data          0x0000000000000000        0x0 contiki-srf06-cc26xx.a(timer.o)
 .bss           0x0000000000000000        0x0 contiki-srf06-cc26xx.a(timer.o)
 .text.timer_remaining
                0x0000000000000000       0x10 contiki-srf06-cc26xx.a(timer.o)
 .text          0x0000000000000000        0x0 contiki-srf06-cc26xx.a(serial-line.o)
 .data          0x0000000000000000        0x0 contiki-srf06-cc26xx.a(serial-line.o)
 .bss           0x0000000000000000        0x0 contiki-srf06-cc26xx.a(serial-line.o)
 .text.serial_line_input_byte
                0x0000000000000000       0x44 contiki-srf06-cc26xx.a(serial-line.o)
 .bss.overflow.4735
                0x0000000000000000        0x1 contiki-srf06-cc26xx.a(serial-line.o)
 .text          0x0000000000000000        0x0 contiki-srf06-cc26xx.a(list.o)
 .data          0x0000000000000000        0x0 contiki-srf06-cc26xx.a(list.o)
 .bss           0x0000000000000000        0x0 contiki-srf06-cc26xx.a(list.o)
 .text.list_copy
                0x0000000000000000        0x6 contiki-srf06-cc26xx.a(list.o)
 .text.list_chop
                0x0000000000000000       0x20 contiki-srf06-cc26xx.a(list.o)
 .text.list_pop
                0x0000000000000000        0xc contiki-srf06-cc26xx.a(list.o)
 .text.list_insert
                0x0000000000000000       0x10 contiki-srf06-cc26xx.a(list.o)
 .text          0x0000000000000000        0x0 contiki-srf06-cc26xx.a(ringbuf.o)
 .data          0x0000000000000000        0x0 contiki-srf06-cc26xx.a(ringbuf.o)
 .bss           0x0000000000000000        0x0 contiki-srf06-cc26xx.a(ringbuf.o)
 .text.ringbuf_put
                0x0000000000000000       0x26 contiki-srf06-cc26xx.a(ringbuf.o)
 .text.ringbuf_size
                0x0000000000000000        0x6 contiki-srf06-cc26xx.a(ringbuf.o)
 .text.ringbuf_elements
                0x0000000000000000        0xc contiki-srf06-cc26xx.a(ringbuf.o)
 .text          0x0000000000000000        0x0 contiki-srf06-cc26xx.a(uip-ds6.o)
 .data          0x0000000000000000        0x0 contiki-srf06-cc26xx.a(uip-ds6.o)
 .bss           0x0000000000000000        0x0 contiki-srf06-cc26xx.a(uip-ds6.o)
 .text.uip_ds6_prefix_rm
                0x0000000000000000        0x8 contiki-srf06-cc26xx.a(uip-ds6.o)
 .text.uip_ds6_prefix_lookup
                0x0000000000000000       0x28 contiki-srf06-cc26xx.a(uip-ds6.o)
 .text.uip_ds6_get_global
                0x0000000000000000       0x40 contiki-srf06-cc26xx.a(uip-ds6.o)
 .text.uip_ds6_aaddr_add
                0x0000000000000000       0x4c contiki-srf06-cc26xx.a(uip-ds6.o)
 .text.uip_ds6_aaddr_rm
                0x0000000000000000        0x8 contiki-srf06-cc26xx.a(uip-ds6.o)
 .text.uip_ds6_aaddr_lookup
                0x0000000000000000       0x2c contiki-srf06-cc26xx.a(uip-ds6.o)
 .bss.locaaddr  0x0000000000000000        0x4 contiki-srf06-cc26xx.a(uip-ds6.o)
 .text          0x0000000000000000        0x0 contiki-srf06-cc26xx.a(uip-ds6-route.o)
 .data          0x0000000000000000        0x0 contiki-srf06-cc26xx.a(uip-ds6-route.o)
 .bss           0x0000000000000000        0x0 contiki-srf06-cc26xx.a(uip-ds6-route.o)
 .text.uip_ds6_notification_add
                0x0000000000000000       0x18 contiki-srf06-cc26xx.a(uip-ds6-route.o)
 .text.uip_ds6_notification_rm
                0x0000000000000000        0xc contiki-srf06-cc26xx.a(uip-ds6-route.o)
 .text.uip_ds6_route_num_routes
                0x0000000000000000        0xc contiki-srf06-cc26xx.a(uip-ds6-route.o)
 .text.uip_ds6_route_rm_by_nexthop
                0x0000000000000000       0x1c contiki-srf06-cc26xx.a(uip-ds6-route.o)
 .text.uip_ds6_defrt_head
                0x0000000000000000        0xc contiki-srf06-cc26xx.a(uip-ds6-route.o)
 .text          0x0000000000000000        0x0 contiki-srf06-cc26xx.a(uip6.o)
 .data          0x0000000000000000        0x0 contiki-srf06-cc26xx.a(uip6.o)
 .bss           0x0000000000000000        0x0 contiki-srf06-cc26xx.a(uip6.o)
 .text.uip_chksum
                0x0000000000000000       0x14 contiki-srf06-cc26xx.a(uip6.o)
 .text.uip_ipchksum
                0x0000000000000000       0x20 contiki-srf06-cc26xx.a(uip6.o)
 .text.uip_connect
                0x0000000000000000       0xd8 contiki-srf06-cc26xx.a(uip6.o)
 .text.uip_udp_new
                0x0000000000000000       0x84 contiki-srf06-cc26xx.a(uip6.o)
 .text.uip_listen
                0x0000000000000000       0x1c contiki-srf06-cc26xx.a(uip6.o)
 .text.uip_htons
                0x0000000000000000        0x6 contiki-srf06-cc26xx.a(uip6.o)
 .text.uip_send
                0x0000000000000000       0x4c contiki-srf06-cc26xx.a(uip6.o)
 .text          0x0000000000000000        0x0 contiki-srf06-cc26xx.a(uip-ds6-nbr.o)
 .data          0x0000000000000000        0x0 contiki-srf06-cc26xx.a(uip-ds6-nbr.o)
 .bss           0x0000000000000000        0x0 contiki-srf06-cc26xx.a(uip-ds6-nbr.o)
 .text.uip_ds6_nbr_get_ipaddr
                0x0000000000000000        0x2 contiki-srf06-cc26xx.a(uip-ds6-nbr.o)
 .text.uip_ds6_nbr_num
                0x0000000000000000       0x24 contiki-srf06-cc26xx.a(uip-ds6-nbr.o)
 .text          0x0000000000000000        0x0 contiki-srf06-cc26xx.a(uip-nd6.o)
 .data          0x0000000000000000        0x0 contiki-srf06-cc26xx.a(uip-nd6.o)
 .bss           0x0000000000000000        0x0 contiki-srf06-cc26xx.a(uip-nd6.o)
 .text          0x0000000000000000        0x0 contiki-srf06-cc26xx.a(sicslowpan.o)
 .data          0x0000000000000000        0x0 contiki-srf06-cc26xx.a(sicslowpan.o)
 .bss           0x0000000000000000        0x0 contiki-srf06-cc26xx.a(sicslowpan.o)
 .text.rime_sniffer_add
                0x0000000000000000        0xc contiki-srf06-cc26xx.a(sicslowpan.o)
 .text.rime_sniffer_remove
                0x0000000000000000        0xc contiki-srf06-cc26xx.a(sicslowpan.o)
 .text.sicslowpan_get_last_rssi
                0x0000000000000000        0xc contiki-srf06-cc26xx.a(sicslowpan.o)
 .text          0x0000000000000000        0x0 contiki-srf06-cc26xx.a(tcpip.o)
 .data          0x0000000000000000        0x0 contiki-srf06-cc26xx.a(tcpip.o)
 .bss           0x0000000000000000        0x0 contiki-srf06-cc26xx.a(tcpip.o)
 .text.tcp_unlisten
                0x0000000000000000       0x34 contiki-srf06-cc26xx.a(tcpip.o)
 .text.tcp_listen
                0x0000000000000000       0x28 contiki-srf06-cc26xx.a(tcpip.o)
 .text.tcp_attach
                0x0000000000000000       0x10 contiki-srf06-cc26xx.a(tcpip.o)
 .text.udp_attach
                0x0000000000000000       0x10 contiki-srf06-cc26xx.a(tcpip.o)
 .text.udp_new  0x0000000000000000       0x18 contiki-srf06-cc26xx.a(tcpip.o)
 .text.udp_broadcast_new
                0x0000000000000000       0x40 contiki-srf06-cc26xx.a(tcpip.o)
 .text.icmp6_new
                0x0000000000000000       0x20 contiki-srf06-cc26xx.a(tcpip.o)
 .text.tcpip_poll_udp
                0x0000000000000000       0x10 contiki-srf06-cc26xx.a(tcpip.o)
 .text.tcpip_poll_tcp
                0x0000000000000000       0x10 contiki-srf06-cc26xx.a(tcpip.o)
 .text.tcp_connect
                0x0000000000000000       0x20 contiki-srf06-cc26xx.a(tcpip.o)
 .text          0x0000000000000000        0x0 contiki-srf06-cc26xx.a(uip-debug.o)
 .data          0x0000000000000000        0x0 contiki-srf06-cc26xx.a(uip-debug.o)
 .bss           0x0000000000000000        0x0 contiki-srf06-cc26xx.a(uip-debug.o)
 .text          0x0000000000000000        0x0 contiki-srf06-cc26xx.a(rpl-dag.o)
 .data          0x0000000000000000        0x0 contiki-srf06-cc26xx.a(rpl-dag.o)
 .bss           0x0000000000000000        0x0 contiki-srf06-cc26xx.a(rpl-dag.o)
 .text.rpl_get_parent_rank
                0x0000000000000000       0x1c contiki-srf06-cc26xx.a(rpl-dag.o)
 .text.rpl_get_parent_link_metric
                0x0000000000000000       0x1e contiki-srf06-cc26xx.a(rpl-dag.o)
 .text.rpl_get_nbr
                0x0000000000000000       0x1c contiki-srf06-cc26xx.a(rpl-dag.o)
 .text.rpl_print_neighbor_list
                0x0000000000000000      0x104 contiki-srf06-cc26xx.a(rpl-dag.o)
 .text.rpl_set_default_instance
                0x0000000000000000        0xc contiki-srf06-cc26xx.a(rpl-dag.o)
 .text.rpl_get_default_instance
                0x0000000000000000        0xc contiki-srf06-cc26xx.a(rpl-dag.o)
 .text.rpl_free_instance
                0x0000000000000000       0x60 contiki-srf06-cc26xx.a(rpl-dag.o)
 .text.rpl_has_downward_route
                0x0000000000000000       0x18 contiki-srf06-cc26xx.a(rpl-dag.o)
 .text.rpl_get_dag
                0x0000000000000000       0x3c contiki-srf06-cc26xx.a(rpl-dag.o)
 .rodata.str1.1
                0x0000000000000000       0x84 contiki-srf06-cc26xx.a(rpl-dag.o)
 .text          0x0000000000000000        0x0 contiki-srf06-cc26xx.a(rpl-timers.o)
 .data          0x0000000000000000        0x0 contiki-srf06-cc26xx.a(rpl-timers.o)
 .bss           0x0000000000000000        0x0 contiki-srf06-cc26xx.a(rpl-timers.o)
 .text.rpl_schedule_dao_immediately
                0x0000000000000000        0x6 contiki-srf06-cc26xx.a(rpl-timers.o)
 .text.rpl_cancel_dao
                0x0000000000000000       0x16 contiki-srf06-cc26xx.a(rpl-timers.o)
 .text          0x0000000000000000        0x0 contiki-srf06-cc26xx.a(rpl-ext-header.)
 .data          0x0000000000000000        0x0 contiki-srf06-cc26xx.a(rpl-ext-header.)
 .bss           0x0000000000000000        0x0 contiki-srf06-cc26xx.a(rpl-ext-header.)
 .text          0x0000000000000000        0x0 contiki-srf06-cc26xx.a(rpl.o)
 .data          0x0000000000000000        0x0 contiki-srf06-cc26xx.a(rpl.o)
 .bss           0x0000000000000000        0x0 contiki-srf06-cc26xx.a(rpl.o)
 .text.rpl_set_mode
                0x0000000000000000       0x78 contiki-srf06-cc26xx.a(rpl.o)
 .text          0x0000000000000000        0x0 contiki-srf06-cc26xx.a(rpl-mrhof.o)
 .data          0x0000000000000000        0x0 contiki-srf06-cc26xx.a(rpl-mrhof.o)
 .bss           0x0000000000000000        0x0 contiki-srf06-cc26xx.a(rpl-mrhof.o)
 .text          0x0000000000000000        0x0 contiki-srf06-cc26xx.a(rpl-icmp6.o)
 .data          0x0000000000000000        0x0 contiki-srf06-cc26xx.a(rpl-icmp6.o)
 .bss           0x0000000000000000        0x0 contiki-srf06-cc26xx.a(rpl-icmp6.o)
 .text.dao_ack_output
                0x0000000000000000        0x2 contiki-srf06-cc26xx.a(rpl-icmp6.o)
 .text          0x0000000000000000        0x0 contiki-srf06-cc26xx.a(setup.o)
 .data          0x0000000000000000        0x0 contiki-srf06-cc26xx.a(setup.o)
 .bss           0x0000000000000000        0x0 contiki-srf06-cc26xx.a(setup.o)
 .text          0x0000000000000000        0x0 contiki-srf06-cc26xx.a(adi.o)
 .data          0x0000000000000000        0x0 contiki-srf06-cc26xx.a(adi.o)
 .bss           0x0000000000000000        0x0 contiki-srf06-cc26xx.a(adi.o)
 .text.SafeHapiAuxAdiSelect
                0x0000000000000000       0x2c contiki-srf06-cc26xx.a(adi.o)
 .text          0x0000000000000000        0x0 contiki-srf06-cc26xx.a(ddi.o)
 .data          0x0000000000000000        0x0 contiki-srf06-cc26xx.a(ddi.o)
 .bss           0x0000000000000000        0x0 contiki-srf06-cc26xx.a(ddi.o)
 .text.NOROM_DDI16BitWrite
                0x0000000000000000       0x22 contiki-srf06-cc26xx.a(ddi.o)
 .text.NOROM_DDI16BitRead
                0x0000000000000000       0x34 contiki-srf06-cc26xx.a(ddi.o)
 .text          0x0000000000000000        0x0 contiki-srf06-cc26xx.a(pwr_ctrl.o)
 .data          0x0000000000000000        0x0 contiki-srf06-cc26xx.a(pwr_ctrl.o)
 .bss           0x0000000000000000        0x0 contiki-srf06-cc26xx.a(pwr_ctrl.o)
 .text          0x0000000000000000        0x0 contiki-srf06-cc26xx.a(osc.o)
 .data          0x0000000000000000        0x0 contiki-srf06-cc26xx.a(osc.o)
 .bss           0x0000000000000000        0x0 contiki-srf06-cc26xx.a(osc.o)
 .text.NOROM_OSCHF_GetStartupTime
                0x0000000000000000       0x90 contiki-srf06-cc26xx.a(osc.o)
 .text.NOROM_OSCHF_TurnOnXosc
                0x0000000000000000       0x18 contiki-srf06-cc26xx.a(osc.o)
 .text.NOROM_OSCHF_AttemptToSwitchToXosc
                0x0000000000000000       0x58 contiki-srf06-cc26xx.a(osc.o)
 .text.NOROM_OSCHF_SwitchToRcOscTurnOffXosc
                0x0000000000000000       0x34 contiki-srf06-cc26xx.a(osc.o)
 .text.NOROM_OSC_HPOSCRelativeFrequencyOffsetGet
                0x0000000000000000       0x3c contiki-srf06-cc26xx.a(osc.o)
 .text.NOROM_OSC_HPOSCRelativeFrequencyOffsetToRFCoreFormatConvert
                0x0000000000000000        0xc contiki-srf06-cc26xx.a(osc.o)
 .text.NOROM_OSCHF_DebugGetCrystalAmplitude
                0x0000000000000000       0x34 contiki-srf06-cc26xx.a(osc.o)
 .text.NOROM_OSCHF_DebugGetExpectedAverageCrystalAmplitude
                0x0000000000000000       0x1c contiki-srf06-cc26xx.a(osc.o)
 .bss.oscHfGlobals
                0x0000000000000000       0x14 contiki-srf06-cc26xx.a(osc.o)
 .text          0x0000000000000000        0x0 contiki-srf06-cc26xx.a(trng.o)
 .data          0x0000000000000000        0x0 contiki-srf06-cc26xx.a(trng.o)
 .bss           0x0000000000000000        0x0 contiki-srf06-cc26xx.a(trng.o)
 .text.NOROM_TRNGNumberGet
                0x0000000000000000       0x20 contiki-srf06-cc26xx.a(trng.o)
 .text          0x0000000000000000        0x0 contiki-srf06-cc26xx.a(cpu.o)
 .data          0x0000000000000000        0x0 contiki-srf06-cc26xx.a(cpu.o)
 .bss           0x0000000000000000        0x0 contiki-srf06-cc26xx.a(cpu.o)
 .text.NOROM_CPUprimask
                0x0000000000000000        0x6 contiki-srf06-cc26xx.a(cpu.o)
 .text.NOROM_CPUbasepriGet
                0x0000000000000000        0x6 contiki-srf06-cc26xx.a(cpu.o)
 .text          0x0000000000000000        0x0 contiki-srf06-cc26xx.a(sys_ctrl.o)
 .data          0x0000000000000000        0x0 contiki-srf06-cc26xx.a(sys_ctrl.o)
 .bss           0x0000000000000000        0x0 contiki-srf06-cc26xx.a(sys_ctrl.o)
 .text.NOROM_SysCtrlPowerEverything
                0x0000000000000000       0xf0 contiki-srf06-cc26xx.a(sys_ctrl.o)
 .text.NOROM_SysCtrlResetSourceGet
                0x0000000000000000       0x18 contiki-srf06-cc26xx.a(sys_ctrl.o)
 .rodata.g_pui32ModuleCG
                0x0000000000000000       0x34 contiki-srf06-cc26xx.a(sys_ctrl.o)
 .text          0x0000000000000000        0x0 contiki-srf06-cc26xx.a(aon_rtc.o)
 .data          0x0000000000000000        0x0 contiki-srf06-cc26xx.a(aon_rtc.o)
 .bss           0x0000000000000000        0x0 contiki-srf06-cc26xx.a(aon_rtc.o)
 .text.NOROM_AONRTCCurrent64BitValueGet
                0x0000000000000000       0x1c contiki-srf06-cc26xx.a(aon_rtc.o)
 .text          0x0000000000000000        0x0 contiki-srf06-cc26xx.a(chipinfo.o)
 .data          0x0000000000000000        0x0 contiki-srf06-cc26xx.a(chipinfo.o)
 .bss           0x0000000000000000        0x0 contiki-srf06-cc26xx.a(chipinfo.o)
 .text.NOROM_ChipInfo_GetPackageType
                0x0000000000000000       0x18 contiki-srf06-cc26xx.a(chipinfo.o)
 .text          0x0000000000000000        0x0 contiki-srf06-cc26xx.a(queuebuf.o)
 .data          0x0000000000000000        0x0 contiki-srf06-cc26xx.a(queuebuf.o)
 .bss           0x0000000000000000        0x0 contiki-srf06-cc26xx.a(queuebuf.o)
 .text.queuebuf_dataptr
                0x0000000000000000       0x18 contiki-srf06-cc26xx.a(queuebuf.o)
 .text.queuebuf_datalen
                0x0000000000000000        0x8 contiki-srf06-cc26xx.a(queuebuf.o)
 .text.queuebuf_addr
                0x0000000000000000        0xa contiki-srf06-cc26xx.a(queuebuf.o)
 .text.queuebuf_debug_print
                0x0000000000000000        0x2 contiki-srf06-cc26xx.a(queuebuf.o)
 .text          0x0000000000000000        0x0 contiki-srf06-cc26xx.a(nbr-table.o)
 .data          0x0000000000000000        0x0 contiki-srf06-cc26xx.a(nbr-table.o)
 .bss           0x0000000000000000        0x0 contiki-srf06-cc26xx.a(nbr-table.o)
 .text          0x0000000000000000        0x0 contiki-srf06-cc26xx.a(packetbuf.o)
 .data          0x0000000000000000        0x0 contiki-srf06-cc26xx.a(packetbuf.o)
 .bss           0x0000000000000000        0x0 contiki-srf06-cc26xx.a(packetbuf.o)
 .text.packetbuf_compact
                0x0000000000000000       0x4c contiki-srf06-cc26xx.a(packetbuf.o)
 .text.packetbuf_remaininglen
                0x0000000000000000        0xe contiki-srf06-cc26xx.a(packetbuf.o)
 .text          0x0000000000000000        0x0 contiki-srf06-cc26xx.a(netstack.o)
 .data          0x0000000000000000        0x0 contiki-srf06-cc26xx.a(netstack.o)
 .bss           0x0000000000000000        0x0 contiki-srf06-cc26xx.a(netstack.o)
 .text          0x0000000000000000        0x0 contiki-srf06-cc26xx.a(linkaddr.o)
 .data          0x0000000000000000        0x0 contiki-srf06-cc26xx.a(linkaddr.o)
 .bss           0x0000000000000000        0x0 contiki-srf06-cc26xx.a(linkaddr.o)
 .text.linkaddr_set_node_addr
                0x0000000000000000        0xc contiki-srf06-cc26xx.a(linkaddr.o)
 .text          0x0000000000000000        0x0 contiki-srf06-cc26xx.a(link-stats.o)
 .data          0x0000000000000000        0x0 contiki-srf06-cc26xx.a(link-stats.o)
 .bss           0x0000000000000000        0x0 contiki-srf06-cc26xx.a(link-stats.o)
 .text.guess_etx_from_rssi
                0x0000000000000000       0x40 contiki-srf06-cc26xx.a(link-stats.o)
 .text          0x0000000000000000        0x0 contiki-srf06-cc26xx.a(framer-802154.o)
 .data          0x0000000000000000        0x0 contiki-srf06-cc26xx.a(framer-802154.o)
 .bss           0x0000000000000000        0x0 contiki-srf06-cc26xx.a(framer-802154.o)
 .text          0x0000000000000000        0x0 contiki-srf06-cc26xx.a(csma.o)
 .data          0x0000000000000000        0x0 contiki-srf06-cc26xx.a(csma.o)
 .bss           0x0000000000000000        0x0 contiki-srf06-cc26xx.a(csma.o)
 .text          0x0000000000000000        0x0 contiki-srf06-cc26xx.a(frame802154.o)
 .data          0x0000000000000000        0x0 contiki-srf06-cc26xx.a(frame802154.o)
 .bss           0x0000000000000000        0x0 contiki-srf06-cc26xx.a(frame802154.o)
 .text.frame802154_set_pan_id
                0x0000000000000000        0xc contiki-srf06-cc26xx.a(frame802154.o)
 .text.frame802154_check_dest_panid
                0x0000000000000000       0x34 contiki-srf06-cc26xx.a(frame802154.o)
 .text.frame802154_extract_linkaddr
                0x0000000000000000       0x7c contiki-srf06-cc26xx.a(frame802154.o)
 .text          0x0000000000000000        0x0 contiki-srf06-cc26xx.a(mac.o)
 .data          0x0000000000000000        0x0 contiki-srf06-cc26xx.a(mac.o)
 .bss           0x0000000000000000        0x0 contiki-srf06-cc26xx.a(mac.o)
 .text          0x0000000000000000        0x0 contiki-srf06-cc26xx.a(contikimac.o)
 .data          0x0000000000000000        0x0 contiki-srf06-cc26xx.a(contikimac.o)
 .bss           0x0000000000000000        0x0 contiki-srf06-cc26xx.a(contikimac.o)
 .text.contikimac_debug_print
                0x0000000000000000        0x4 contiki-srf06-cc26xx.a(contikimac.o)
 .text          0x0000000000000000        0x0 contiki-srf06-cc26xx.a(nullsec.o)
 .data          0x0000000000000000        0x0 contiki-srf06-cc26xx.a(nullsec.o)
 .bss           0x0000000000000000        0x0 contiki-srf06-cc26xx.a(nullsec.o)
 .text          0x0000000000000000        0x0 contiki-srf06-cc26xx.a(sensor-common.o)
 .data          0x0000000000000000        0x0 contiki-srf06-cc26xx.a(sensor-common.o)
 .bss           0x0000000000000000        0x0 contiki-srf06-cc26xx.a(sensor-common.o)
 .text          0x0000000000000000        0x0 contiki-srf06-cc26xx.a(ext-flash.o)
 .data          0x0000000000000000        0x0 contiki-srf06-cc26xx.a(ext-flash.o)
 .bss           0x0000000000000000        0x0 contiki-srf06-cc26xx.a(ext-flash.o)
 .text.write_enable
                0x0000000000000000       0x28 contiki-srf06-cc26xx.a(ext-flash.o)
 .text.ext_flash_read
                0x0000000000000000       0x50 contiki-srf06-cc26xx.a(ext-flash.o)
 .text.ext_flash_write
                0x0000000000000000       0x84 contiki-srf06-cc26xx.a(ext-flash.o)
 .text.ext_flash_erase
                0x0000000000000000       0x70 contiki-srf06-cc26xx.a(ext-flash.o)
 .text.ext_flash_test
                0x0000000000000000       0x10 contiki-srf06-cc26xx.a(ext-flash.o)
 .text          0x0000000000000000        0x0 contiki-srf06-cc26xx.a(buzzer.o)
 .data          0x0000000000000000        0x0 contiki-srf06-cc26xx.a(buzzer.o)
 .bss           0x0000000000000000        0x0 contiki-srf06-cc26xx.a(buzzer.o)
 .text.buzzer_state
                0x0000000000000000        0xc contiki-srf06-cc26xx.a(buzzer.o)
 .text.buzzer_start
                0x0000000000000000       0xa0 contiki-srf06-cc26xx.a(buzzer.o)
 .text          0x0000000000000000        0x0 contiki-srf06-cc26xx.a(board-spi.o)
 .data          0x0000000000000000        0x0 contiki-srf06-cc26xx.a(board-spi.o)
 .bss           0x0000000000000000        0x0 contiki-srf06-cc26xx.a(board-spi.o)
 .text          0x0000000000000000        0x0 contiki-srf06-cc26xx.a(aux-ctrl.o)
 .data          0x0000000000000000        0x0 contiki-srf06-cc26xx.a(aux-ctrl.o)
 .bss           0x0000000000000000        0x0 contiki-srf06-cc26xx.a(aux-ctrl.o)
 .text          0x0000000000000000        0x0 contiki-srf06-cc26xx.a(rf-core.o)
 .data          0x0000000000000000        0x0 contiki-srf06-cc26xx.a(rf-core.o)
 .bss           0x0000000000000000        0x0 contiki-srf06-cc26xx.a(rf-core.o)
 .text.rf_core_primary_mode_abort
                0x0000000000000000       0x14 contiki-srf06-cc26xx.a(rf-core.o)
 .text.rf_core_primary_mode_restore
                0x0000000000000000       0x14 contiki-srf06-cc26xx.a(rf-core.o)
 .text          0x0000000000000000        0x0 contiki-srf06-cc26xx.a(rf-ble.o)
 .data          0x0000000000000000        0x0 contiki-srf06-cc26xx.a(rf-ble.o)
 .bss           0x0000000000000000        0x0 contiki-srf06-cc26xx.a(rf-ble.o)
 .text.process_thread_rf_ble_beacon_process
                0x0000000000000000      0x224 contiki-srf06-cc26xx.a(rf-ble.o)
 .text.rf_ble_beacond_config
                0x0000000000000000        0x2 contiki-srf06-cc26xx.a(rf-ble.o)
 .text.rf_ble_beacond_start
                0x0000000000000000        0x4 contiki-srf06-cc26xx.a(rf-ble.o)
 .text.rf_ble_beacond_stop
                0x0000000000000000        0xc contiki-srf06-cc26xx.a(rf-ble.o)
 .data.rf_ble_beacon_process
                0x0000000000000000       0x10 contiki-srf06-cc26xx.a(rf-ble.o)
 .bss.p         0x0000000000000000        0x4 contiki-srf06-cc26xx.a(rf-ble.o)
 .bss.ble_params_buf
                0x0000000000000000       0x20 contiki-srf06-cc26xx.a(rf-ble.o)
 .rodata.str1.1
                0x0000000000000000       0x26 contiki-srf06-cc26xx.a(rf-ble.o)
 .bss.ble_adv_et
                0x0000000000000000       0x10 contiki-srf06-cc26xx.a(rf-ble.o)
 .bss.i         0x0000000000000000        0x4 contiki-srf06-cc26xx.a(rf-ble.o)
 .bss.payload   0x0000000000000000       0x40 contiki-srf06-cc26xx.a(rf-ble.o)
 .data.beacond_config
                0x0000000000000000       0x24 contiki-srf06-cc26xx.a(rf-ble.o)
 .data.ble_overrides
                0x0000000000000000       0x1c contiki-srf06-cc26xx.a(rf-ble.o)
 .text          0x0000000000000000        0x0 contiki-srf06-cc26xx.a(stimer.o)
 .data          0x0000000000000000        0x0 contiki-srf06-cc26xx.a(stimer.o)
 .bss           0x0000000000000000        0x0 contiki-srf06-cc26xx.a(stimer.o)
 .text.stimer_reset
                0x0000000000000000        0xa contiki-srf06-cc26xx.a(stimer.o)
 .text.stimer_restart
                0x0000000000000000        0xc contiki-srf06-cc26xx.a(stimer.o)
 .text.stimer_remaining
                0x0000000000000000       0x10 contiki-srf06-cc26xx.a(stimer.o)
 .text.stimer_elapsed
                0x0000000000000000        0xe contiki-srf06-cc26xx.a(stimer.o)
 .text          0x0000000000000000        0x0 contiki-srf06-cc26xx.a(memb.o)
 .data          0x0000000000000000        0x0 contiki-srf06-cc26xx.a(memb.o)
 .bss           0x0000000000000000        0x0 contiki-srf06-cc26xx.a(memb.o)
 .text          0x0000000000000000        0x0 contiki-srf06-cc26xx.a(uip-icmp6.o)
 .data          0x0000000000000000        0x0 contiki-srf06-cc26xx.a(uip-icmp6.o)
 .bss           0x0000000000000000        0x0 contiki-srf06-cc26xx.a(uip-icmp6.o)
 .text.uip_icmp6_echo_reply_callback_add
                0x0000000000000000       0x18 contiki-srf06-cc26xx.a(uip-icmp6.o)
 .text.uip_icmp6_echo_reply_callback_rm
                0x0000000000000000        0xc contiki-srf06-cc26xx.a(uip-icmp6.o)
 .text          0x0000000000000000        0x0 contiki-srf06-cc26xx.a(rpl-nbr-policy.)
 .data          0x0000000000000000        0x0 contiki-srf06-cc26xx.a(rpl-nbr-policy.)
 .bss           0x0000000000000000        0x0 contiki-srf06-cc26xx.a(rpl-nbr-policy.)
 .text          0x0000000000000000        0x0 contiki-srf06-cc26xx.a(setup_rom.o)
 .data          0x0000000000000000        0x0 contiki-srf06-cc26xx.a(setup_rom.o)
 .bss           0x0000000000000000        0x0 contiki-srf06-cc26xx.a(setup_rom.o)
 .text.NOROM_SetupGetTrimForXoscHfIbiastherm
                0x0000000000000000       0x10 contiki-srf06-cc26xx.a(setup_rom.o)
 .text          0x0000000000000000        0x0 contiki-srf06-cc26xx.a(aon_batmon.o)
 .data          0x0000000000000000        0x0 contiki-srf06-cc26xx.a(aon_batmon.o)
 .bss           0x0000000000000000        0x0 contiki-srf06-cc26xx.a(aon_batmon.o)
 .text          0x0000000000000000        0x0 contiki-srf06-cc26xx.a(mac-sequence.o)
 .data          0x0000000000000000        0x0 contiki-srf06-cc26xx.a(mac-sequence.o)
 .bss           0x0000000000000000        0x0 contiki-srf06-cc26xx.a(mac-sequence.o)
 .text          0x0000000000000000        0x0 /usr/lib/gcc/arm-none-eabi/4.8/../../../arm-none-eabi/lib/armv7-m/libm.a(lib_a-w_exp2.o)
 .data          0x0000000000000000        0x0 /usr/lib/gcc/arm-none-eabi/4.8/../../../arm-none-eabi/lib/armv7-m/libm.a(lib_a-w_exp2.o)
 .bss           0x0000000000000000        0x0 /usr/lib/gcc/arm-none-eabi/4.8/../../../arm-none-eabi/lib/armv7-m/libm.a(lib_a-w_exp2.o)
 .text          0x0000000000000000        0x0 /usr/lib/gcc/arm-none-eabi/4.8/../../../arm-none-eabi/lib/armv7-m/libm.a(lib_a-w_pow.o)
 .data          0x0000000000000000        0x0 /usr/lib/gcc/arm-none-eabi/4.8/../../../arm-none-eabi/lib/armv7-m/libm.a(lib_a-w_pow.o)
 .bss           0x0000000000000000        0x0 /usr/lib/gcc/arm-none-eabi/4.8/../../../arm-none-eabi/lib/armv7-m/libm.a(lib_a-w_pow.o)
 .text          0x0000000000000000        0x0 /usr/lib/gcc/arm-none-eabi/4.8/../../../arm-none-eabi/lib/armv7-m/libm.a(lib_a-e_pow.o)
 .data          0x0000000000000000        0x0 /usr/lib/gcc/arm-none-eabi/4.8/../../../arm-none-eabi/lib/armv7-m/libm.a(lib_a-e_pow.o)
 .bss           0x0000000000000000        0x0 /usr/lib/gcc/arm-none-eabi/4.8/../../../arm-none-eabi/lib/armv7-m/libm.a(lib_a-e_pow.o)
 .text          0x0000000000000000        0x0 /usr/lib/gcc/arm-none-eabi/4.8/../../../arm-none-eabi/lib/armv7-m/libm.a(lib_a-e_sqrt.o)
 .data          0x0000000000000000        0x0 /usr/lib/gcc/arm-none-eabi/4.8/../../../arm-none-eabi/lib/armv7-m/libm.a(lib_a-e_sqrt.o)
 .bss           0x0000000000000000        0x0 /usr/lib/gcc/arm-none-eabi/4.8/../../../arm-none-eabi/lib/armv7-m/libm.a(lib_a-e_sqrt.o)
 .text          0x0000000000000000        0x0 /usr/lib/gcc/arm-none-eabi/4.8/../../../arm-none-eabi/lib/armv7-m/libm.a(lib_a-s_fabs.o)
 .data          0x0000000000000000        0x0 /usr/lib/gcc/arm-none-eabi/4.8/../../../arm-none-eabi/lib/armv7-m/libm.a(lib_a-s_fabs.o)
 .bss           0x0000000000000000        0x0 /usr/lib/gcc/arm-none-eabi/4.8/../../../arm-none-eabi/lib/armv7-m/libm.a(lib_a-s_fabs.o)
 .text          0x0000000000000000        0x0 /usr/lib/gcc/arm-none-eabi/4.8/../../../arm-none-eabi/lib/armv7-m/libm.a(lib_a-s_finite.o)
 .data          0x0000000000000000        0x0 /usr/lib/gcc/arm-none-eabi/4.8/../../../arm-none-eabi/lib/armv7-m/libm.a(lib_a-s_finite.o)
 .bss           0x0000000000000000        0x0 /usr/lib/gcc/arm-none-eabi/4.8/../../../arm-none-eabi/lib/armv7-m/libm.a(lib_a-s_finite.o)
 .text          0x0000000000000000        0x0 /usr/lib/gcc/arm-none-eabi/4.8/../../../arm-none-eabi/lib/armv7-m/libm.a(lib_a-s_fpclassify.o)
 .data          0x0000000000000000        0x0 /usr/lib/gcc/arm-none-eabi/4.8/../../../arm-none-eabi/lib/armv7-m/libm.a(lib_a-s_fpclassify.o)
 .bss           0x0000000000000000        0x0 /usr/lib/gcc/arm-none-eabi/4.8/../../../arm-none-eabi/lib/armv7-m/libm.a(lib_a-s_fpclassify.o)
 .text          0x0000000000000000        0x0 /usr/lib/gcc/arm-none-eabi/4.8/../../../arm-none-eabi/lib/armv7-m/libm.a(lib_a-s_lib_ver.o)
 .data          0x0000000000000000        0x0 /usr/lib/gcc/arm-none-eabi/4.8/../../../arm-none-eabi/lib/armv7-m/libm.a(lib_a-s_lib_ver.o)
 .bss           0x0000000000000000        0x0 /usr/lib/gcc/arm-none-eabi/4.8/../../../arm-none-eabi/lib/armv7-m/libm.a(lib_a-s_lib_ver.o)
 .text          0x0000000000000000        0x0 /usr/lib/gcc/arm-none-eabi/4.8/../../../arm-none-eabi/lib/armv7-m/libm.a(lib_a-s_matherr.o)
 .data          0x0000000000000000        0x0 /usr/lib/gcc/arm-none-eabi/4.8/../../../arm-none-eabi/lib/armv7-m/libm.a(lib_a-s_matherr.o)
 .bss           0x0000000000000000        0x0 /usr/lib/gcc/arm-none-eabi/4.8/../../../arm-none-eabi/lib/armv7-m/libm.a(lib_a-s_matherr.o)
 .text          0x0000000000000000        0x0 /usr/lib/gcc/arm-none-eabi/4.8/../../../arm-none-eabi/lib/armv7-m/libm.a(lib_a-s_nan.o)
 .data          0x0000000000000000        0x0 /usr/lib/gcc/arm-none-eabi/4.8/../../../arm-none-eabi/lib/armv7-m/libm.a(lib_a-s_nan.o)
 .bss           0x0000000000000000        0x0 /usr/lib/gcc/arm-none-eabi/4.8/../../../arm-none-eabi/lib/armv7-m/libm.a(lib_a-s_nan.o)
 .text          0x0000000000000000        0x0 /usr/lib/gcc/arm-none-eabi/4.8/../../../arm-none-eabi/lib/armv7-m/libm.a(lib_a-s_rint.o)
 .data          0x0000000000000000        0x0 /usr/lib/gcc/arm-none-eabi/4.8/../../../arm-none-eabi/lib/armv7-m/libm.a(lib_a-s_rint.o)
 .bss           0x0000000000000000        0x0 /usr/lib/gcc/arm-none-eabi/4.8/../../../arm-none-eabi/lib/armv7-m/libm.a(lib_a-s_rint.o)
 .text          0x0000000000000000        0x0 /usr/lib/gcc/arm-none-eabi/4.8/../../../arm-none-eabi/lib/armv7-m/libm.a(lib_a-s_scalbn.o)
 .data          0x0000000000000000        0x0 /usr/lib/gcc/arm-none-eabi/4.8/../../../arm-none-eabi/lib/armv7-m/libm.a(lib_a-s_scalbn.o)
 .bss           0x0000000000000000        0x0 /usr/lib/gcc/arm-none-eabi/4.8/../../../arm-none-eabi/lib/armv7-m/libm.a(lib_a-s_scalbn.o)
 .text          0x0000000000000000        0x0 /usr/lib/gcc/arm-none-eabi/4.8/../../../arm-none-eabi/lib/armv7-m/libm.a(lib_a-s_copysign.o)
 .data          0x0000000000000000        0x0 /usr/lib/gcc/arm-none-eabi/4.8/../../../arm-none-eabi/lib/armv7-m/libm.a(lib_a-s_copysign.o)
 .bss           0x0000000000000000        0x0 /usr/lib/gcc/arm-none-eabi/4.8/../../../arm-none-eabi/lib/armv7-m/libm.a(lib_a-s_copysign.o)
 .data          0x0000000000000000        0x0 /usr/lib/gcc/arm-none-eabi/4.8/armv7-m/libgcc.a(_arm_addsubdf3.o)
 .bss           0x0000000000000000        0x0 /usr/lib/gcc/arm-none-eabi/4.8/armv7-m/libgcc.a(_arm_addsubdf3.o)
 .data          0x0000000000000000        0x0 /usr/lib/gcc/arm-none-eabi/4.8/armv7-m/libgcc.a(_arm_muldivdf3.o)
 .bss           0x0000000000000000        0x0 /usr/lib/gcc/arm-none-eabi/4.8/armv7-m/libgcc.a(_arm_muldivdf3.o)
 .data          0x0000000000000000        0x0 /usr/lib/gcc/arm-none-eabi/4.8/armv7-m/libgcc.a(_arm_cmpdf2.o)
 .bss           0x0000000000000000        0x0 /usr/lib/gcc/arm-none-eabi/4.8/armv7-m/libgcc.a(_arm_cmpdf2.o)
 .data          0x0000000000000000        0x0 /usr/lib/gcc/arm-none-eabi/4.8/armv7-m/libgcc.a(_arm_truncdfsf2.o)
 .bss           0x0000000000000000        0x0 /usr/lib/gcc/arm-none-eabi/4.8/armv7-m/libgcc.a(_arm_truncdfsf2.o)
 .data          0x0000000000000000        0x0 /usr/lib/gcc/arm-none-eabi/4.8/armv7-m/libgcc.a(_arm_addsubsf3.o)
 .bss           0x0000000000000000        0x0 /usr/lib/gcc/arm-none-eabi/4.8/armv7-m/libgcc.a(_arm_addsubsf3.o)
 .data          0x0000000000000000        0x0 /usr/lib/gcc/arm-none-eabi/4.8/armv7-m/libgcc.a(_arm_muldivsf3.o)
 .bss           0x0000000000000000        0x0 /usr/lib/gcc/arm-none-eabi/4.8/armv7-m/libgcc.a(_arm_muldivsf3.o)
 .data          0x0000000000000000        0x0 /usr/lib/gcc/arm-none-eabi/4.8/armv7-m/libgcc.a(_arm_fixsfsi.o)
 .bss           0x0000000000000000        0x0 /usr/lib/gcc/arm-none-eabi/4.8/armv7-m/libgcc.a(_arm_fixsfsi.o)
 .data          0x0000000000000000        0x0 /usr/lib/gcc/arm-none-eabi/4.8/armv7-m/libgcc.a(_aeabi_uldivmod.o)
 .bss           0x0000000000000000        0x0 /usr/lib/gcc/arm-none-eabi/4.8/armv7-m/libgcc.a(_aeabi_uldivmod.o)
 .data          0x0000000000000000        0x0 /usr/lib/gcc/arm-none-eabi/4.8/armv7-m/libgcc.a(bpabi.o)
 .bss           0x0000000000000000        0x0 /usr/lib/gcc/arm-none-eabi/4.8/armv7-m/libgcc.a(bpabi.o)
 .data          0x0000000000000000        0x0 /usr/lib/gcc/arm-none-eabi/4.8/armv7-m/libgcc.a(_dvmd_tls.o)
 .bss           0x0000000000000000        0x0 /usr/lib/gcc/arm-none-eabi/4.8/armv7-m/libgcc.a(_dvmd_tls.o)
 .data          0x0000000000000000        0x0 /usr/lib/gcc/arm-none-eabi/4.8/armv7-m/libgcc.a(_divdi3.o)
 .bss           0x0000000000000000        0x0 /usr/lib/gcc/arm-none-eabi/4.8/armv7-m/libgcc.a(_divdi3.o)
 .ARM.extab     0x0000000000000000        0x0 /usr/lib/gcc/arm-none-eabi/4.8/armv7-m/libgcc.a(_divdi3.o)
 .data          0x0000000000000000        0x0 /usr/lib/gcc/arm-none-eabi/4.8/armv7-m/libgcc.a(_udivdi3.o)
 .bss           0x0000000000000000        0x0 /usr/lib/gcc/arm-none-eabi/4.8/armv7-m/libgcc.a(_udivdi3.o)
 .ARM.extab     0x0000000000000000        0x0 /usr/lib/gcc/arm-none-eabi/4.8/armv7-m/libgcc.a(_udivdi3.o)
 .text          0x0000000000000000        0x0 /usr/lib/gcc/arm-none-eabi/4.8/../../../arm-none-eabi/lib/armv7-m/libc.a(lib_a-errno.o)
 .data          0x0000000000000000        0x0 /usr/lib/gcc/arm-none-eabi/4.8/../../../arm-none-eabi/lib/armv7-m/libc.a(lib_a-errno.o)
 .bss           0x0000000000000000        0x0 /usr/lib/gcc/arm-none-eabi/4.8/../../../arm-none-eabi/lib/armv7-m/libc.a(lib_a-errno.o)
 .text          0x0000000000000000        0x0 /usr/lib/gcc/arm-none-eabi/4.8/../../../arm-none-eabi/lib/armv7-m/libc.a(lib_a-impure.o)
 .data          0x0000000000000000        0x0 /usr/lib/gcc/arm-none-eabi/4.8/../../../arm-none-eabi/lib/armv7-m/libc.a(lib_a-impure.o)
 .bss           0x0000000000000000        0x0 /usr/lib/gcc/arm-none-eabi/4.8/../../../arm-none-eabi/lib/armv7-m/libc.a(lib_a-impure.o)
 .rodata._global_impure_ptr
                0x0000000000000000        0x4 /usr/lib/gcc/arm-none-eabi/4.8/../../../arm-none-eabi/lib/armv7-m/libc.a(lib_a-impure.o)
 .text          0x0000000000000000        0x0 /usr/lib/gcc/arm-none-eabi/4.8/../../../arm-none-eabi/lib/armv7-m/libc.a(lib_a-memcmp.o)
 .data          0x0000000000000000        0x0 /usr/lib/gcc/arm-none-eabi/4.8/../../../arm-none-eabi/lib/armv7-m/libc.a(lib_a-memcmp.o)
 .bss           0x0000000000000000        0x0 /usr/lib/gcc/arm-none-eabi/4.8/../../../arm-none-eabi/lib/armv7-m/libc.a(lib_a-memcmp.o)
 .data          0x0000000000000000        0x0 /usr/lib/gcc/arm-none-eabi/4.8/../../../arm-none-eabi/lib/armv7-m/libc.a(lib_a-memcpy.o)
 .bss           0x0000000000000000        0x0 /usr/lib/gcc/arm-none-eabi/4.8/../../../arm-none-eabi/lib/armv7-m/libc.a(lib_a-memcpy.o)
 .text          0x0000000000000000        0x0 /usr/lib/gcc/arm-none-eabi/4.8/../../../arm-none-eabi/lib/armv7-m/libc.a(lib_a-memmove.o)
 .data          0x0000000000000000        0x0 /usr/lib/gcc/arm-none-eabi/4.8/../../../arm-none-eabi/lib/armv7-m/libc.a(lib_a-memmove.o)
 .bss           0x0000000000000000        0x0 /usr/lib/gcc/arm-none-eabi/4.8/../../../arm-none-eabi/lib/armv7-m/libc.a(lib_a-memmove.o)
 .text          0x0000000000000000        0x0 /usr/lib/gcc/arm-none-eabi/4.8/../../../arm-none-eabi/lib/armv7-m/libc.a(lib_a-memset.o)
 .data          0x0000000000000000        0x0 /usr/lib/gcc/arm-none-eabi/4.8/../../../arm-none-eabi/lib/armv7-m/libc.a(lib_a-memset.o)
 .bss           0x0000000000000000        0x0 /usr/lib/gcc/arm-none-eabi/4.8/../../../arm-none-eabi/lib/armv7-m/libc.a(lib_a-memset.o)
 .text          0x0000000000000000        0x0 /usr/lib/gcc/arm-none-eabi/4.8/../../../arm-none-eabi/lib/armv7-m/libc.a(lib_a-strlen.o)
 .data          0x0000000000000000        0x0 /usr/lib/gcc/arm-none-eabi/4.8/../../../arm-none-eabi/lib/armv7-m/libc.a(lib_a-strlen.o)
 .bss           0x0000000000000000        0x0 /usr/lib/gcc/arm-none-eabi/4.8/../../../arm-none-eabi/lib/armv7-m/libc.a(lib_a-strlen.o)
 .text          0x0000000000000000        0x0 /usr/lib/gcc/arm-none-eabi/4.8/../../../arm-none-eabi/lib/armv7-m/libc.a(lib_a-strncmp.o)
 .data          0x0000000000000000        0x0 /usr/lib/gcc/arm-none-eabi/4.8/../../../arm-none-eabi/lib/armv7-m/libc.a(lib_a-strncmp.o)
 .bss           0x0000000000000000        0x0 /usr/lib/gcc/arm-none-eabi/4.8/../../../arm-none-eabi/lib/armv7-m/libc.a(lib_a-strncmp.o)
 .text.strncmp  0x0000000000000000       0xb4 /usr/lib/gcc/arm-none-eabi/4.8/../../../arm-none-eabi/lib/armv7-m/libc.a(lib_a-strncmp.o)
 .debug_info    0x0000000000000000       0xf5 /usr/lib/gcc/arm-none-eabi/4.8/../../../arm-none-eabi/lib/armv7-m/libc.a(lib_a-strncmp.o)
 .debug_abbrev  0x0000000000000000       0x81 /usr/lib/gcc/arm-none-eabi/4.8/../../../arm-none-eabi/lib/armv7-m/libc.a(lib_a-strncmp.o)
 .debug_loc     0x0000000000000000      0x139 /usr/lib/gcc/arm-none-eabi/4.8/../../../arm-none-eabi/lib/armv7-m/libc.a(lib_a-strncmp.o)
 .debug_aranges
                0x0000000000000000       0x20 /usr/lib/gcc/arm-none-eabi/4.8/../../../arm-none-eabi/lib/armv7-m/libc.a(lib_a-strncmp.o)
 .debug_ranges  0x0000000000000000       0x10 /usr/lib/gcc/arm-none-eabi/4.8/../../../arm-none-eabi/lib/armv7-m/libc.a(lib_a-strncmp.o)
 .debug_line    0x0000000000000000      0x151 /usr/lib/gcc/arm-none-eabi/4.8/../../../arm-none-eabi/lib/armv7-m/libc.a(lib_a-strncmp.o)
 .debug_str     0x0000000000000000      0x1c0 /usr/lib/gcc/arm-none-eabi/4.8/../../../arm-none-eabi/lib/armv7-m/libc.a(lib_a-strncmp.o)
 .comment       0x0000000000000000       0x2c /usr/lib/gcc/arm-none-eabi/4.8/../../../arm-none-eabi/lib/armv7-m/libc.a(lib_a-strncmp.o)
 .ARM.attributes
                0x0000000000000000       0x2d /usr/lib/gcc/arm-none-eabi/4.8/../../../arm-none-eabi/lib/armv7-m/libc.a(lib_a-strncmp.o)
 .debug_frame   0x0000000000000000       0x28 /usr/lib/gcc/arm-none-eabi/4.8/../../../arm-none-eabi/lib/armv7-m/libc.a(lib_a-strncmp.o)

Memory Configuration

Name             Origin             Length             Attributes
FLASH            0x0000000000000000 0x000000000001ffa8 xr
FLASH_CCFG       0x000000000001ffa8 0x0000000000000058 xr
SRAM             0x0000000020000000 0x0000000000005000 xrw
GPRAM            0x0000000011000000 0x0000000000002000 xrw
*default*        0x0000000000000000 0xffffffffffffffff

Linker script and memory map

LOAD obj_srf06-cc26xx/fault-handlers.o
LOAD obj_srf06-cc26xx/ccfg.o
LOAD obj_srf06-cc26xx/startup_gcc.o
LOAD border-router.co
LOAD obj_srf06-cc26xx/slip-bridge.o
LOAD contiki-srf06-cc26xx.a
LOAD /usr/lib/gcc/arm-none-eabi/4.8/../../../arm-none-eabi/lib/armv7-m/libm.a
START GROUP
LOAD /usr/lib/gcc/arm-none-eabi/4.8/armv7-m/libgcc.a
LOAD /usr/lib/gcc/arm-none-eabi/4.8/../../../arm-none-eabi/lib/armv7-m/libc.a
END GROUP
                0x0000000020005000                _estack = (ORIGIN (SRAM) + 0x5000)
                0x0000000000000000                _Min_Heap_Size = 0x0
                0x0000000000000100                _Min_Stack_Size = 0x100

.text           0x0000000000000000    0x10244
                0x0000000000000000                _text = .
 *(SORT(.vectors))
 .vectors       0x0000000000000000       0xc8 obj_srf06-cc26xx/startup_gcc.o
                0x0000000000000000                g_pfnVectors
 *(SORT(.text*))
 .text.value    0x00000000000000c8       0xa0 contiki-srf06-cc26xx.a(opt-3001-sensor)
 .text.value    0x0000000000000168       0x98 contiki-srf06-cc26xx.a(hdc-1000-sensor)
 .text.value    0x0000000000000200      0x160 contiki-srf06-cc26xx.a(mpu-9250-sensor)
 .text.__ieee754_pow
                0x0000000000000360      0xab8 /usr/lib/gcc/arm-none-eabi/4.8/../../../arm-none-eabi/lib/armv7-m/libm.a(lib_a-e_pow.o)
                0x0000000000000360                __ieee754_pow
 .text.scalbn   0x0000000000000e18      0x100 /usr/lib/gcc/arm-none-eabi/4.8/../../../arm-none-eabi/lib/armv7-m/libm.a(lib_a-s_scalbn.o)
                0x0000000000000e18                scalbn
 .text.FaultISR
                0x0000000000000f18       0x18 obj_srf06-cc26xx/fault-handlers.o
                0x0000000000000f18                FaultISR
 .text.ResetISR
                0x0000000000000f30       0x4c obj_srf06-cc26xx/startup_gcc.o
                0x0000000000000f30                ResetISR
 .text.request_prefix
                0x0000000000000f7c       0x2c border-router.co
                0x0000000000000f7c                request_prefix
 .text.process_thread_border_router_process
                0x0000000000000fa8       0xf0 border-router.co
 .text.set_prefix_64
                0x0000000000001098       0x68 border-router.co
                0x0000000000001098                set_prefix_64
 .text.init     0x0000000000001100       0x24 obj_srf06-cc26xx/slip-bridge.o
 .text.slip_input_callback
                0x0000000000001124       0xe0 obj_srf06-cc26xx/slip-bridge.o
 .text.output   0x0000000000001204       0x4c obj_srf06-cc26xx/slip-bridge.o
 .text.startup.main
                0x0000000000001250      0x250 contiki-srf06-cc26xx.a(contiki-main.o)
                0x0000000000001250                main
 .text.process_thread_sensors_process
                0x00000000000014a0       0xd4 contiki-srf06-cc26xx.a(sensors.o)
 .text.sensors_changed
                0x0000000000001574       0x38 contiki-srf06-cc26xx.a(sensors.o)
                0x0000000000001574                sensors_changed
 .text.leds_init
                0x00000000000015ac       0x14 contiki-srf06-cc26xx.a(leds.o)
                0x00000000000015ac                leds_init
 .text.leds_on  0x00000000000015c0       0x10 contiki-srf06-cc26xx.a(leds.o)
                0x00000000000015c0                leds_on
 .text.leds_off
                0x00000000000015d0       0x14 contiki-srf06-cc26xx.a(leds.o)
                0x00000000000015d0                leds_off
 .text.leds_arch_init
                0x00000000000015e4       0x34 contiki-srf06-cc26xx.a(leds-arch.o)
                0x00000000000015e4                leds_arch_init
 .text.leds_arch_set
                0x0000000000001618       0x34 contiki-srf06-cc26xx.a(leds-arch.o)
                0x0000000000001618                leds_arch_set
 .text.status   0x000000000000164c       0x14 contiki-srf06-cc26xx.a(bmp-280-sensor.)
 .text.notify_ready
                0x0000000000001660       0x14 contiki-srf06-cc26xx.a(bmp-280-sensor.)
 .text.configure
                0x0000000000001674       0x80 contiki-srf06-cc26xx.a(bmp-280-sensor.)
 .text.value    0x00000000000016f4      0x154 contiki-srf06-cc26xx.a(bmp-280-sensor.)
 .text.status   0x0000000000001848       0x14 contiki-srf06-cc26xx.a(tmp-007-sensor.)
 .text.notify_ready
                0x000000000000185c       0x14 contiki-srf06-cc26xx.a(tmp-007-sensor.)
 .text.enable_sensor
                0x0000000000001870       0x34 contiki-srf06-cc26xx.a(tmp-007-sensor.)
 .text.configure
                0x00000000000018a4       0x78 contiki-srf06-cc26xx.a(tmp-007-sensor.)
 .text.value    0x000000000000191c       0xd8 contiki-srf06-cc26xx.a(tmp-007-sensor.)
 .text.status   0x00000000000019f4        0xc contiki-srf06-cc26xx.a(opt-3001-sensor)
 .text.enable_sensor
                0x0000000000001a00       0x44 contiki-srf06-cc26xx.a(opt-3001-sensor)
 .text.configure
                0x0000000000001a44       0x44 contiki-srf06-cc26xx.a(opt-3001-sensor)
 .text.notify_ready
                0x0000000000001a88       0x50 contiki-srf06-cc26xx.a(opt-3001-sensor)
 .text.status   0x0000000000001ad8       0x14 contiki-srf06-cc26xx.a(hdc-1000-sensor)
 .text.notify_ready
                0x0000000000001aec       0x60 contiki-srf06-cc26xx.a(hdc-1000-sensor)
 .text.configure
                0x0000000000001b4c       0xa4 contiki-srf06-cc26xx.a(hdc-1000-sensor)
 .text.acc_convert
                0x0000000000001bf0       0x58 contiki-srf06-cc26xx.a(mpu-9250-sensor)
 .text.status   0x0000000000001c48       0x14 contiki-srf06-cc26xx.a(mpu-9250-sensor)
 .text.notify_ready
                0x0000000000001c5c       0x14 contiki-srf06-cc26xx.a(mpu-9250-sensor)
 .text.sensor_sleep
                0x0000000000001c70       0x38 contiki-srf06-cc26xx.a(mpu-9250-sensor)
 .text.int_status
                0x0000000000001ca8       0x28 contiki-srf06-cc26xx.a(mpu-9250-sensor)
 .text.configure
                0x0000000000001cd0       0xd4 contiki-srf06-cc26xx.a(mpu-9250-sensor)
 .text.initialise
                0x0000000000001da4       0xf0 contiki-srf06-cc26xx.a(mpu-9250-sensor)
 .text.convert_to_le.constprop.4
                0x0000000000001e94       0x20 contiki-srf06-cc26xx.a(mpu-9250-sensor)
 .text.status.part.0
                0x0000000000001eb4       0x14 contiki-srf06-cc26xx.a(button-sensor.o)
 .text.value_left
                0x0000000000001ec8       0x24 contiki-srf06-cc26xx.a(button-sensor.o)
 .text.value_right
                0x0000000000001eec       0x18 contiki-srf06-cc26xx.a(button-sensor.o)
 .text.config_buttons
                0x0000000000001f04       0x78 contiki-srf06-cc26xx.a(button-sensor.o)
 .text.button_press_handler
                0x0000000000001f7c       0x60 contiki-srf06-cc26xx.a(button-sensor.o)
 .text.value    0x0000000000001fdc       0x10 contiki-srf06-cc26xx.a(reed-relay.o)
 .text.status   0x0000000000001fec       0x20 contiki-srf06-cc26xx.a(reed-relay.o)
 .text.configure
                0x000000000000200c       0x68 contiki-srf06-cc26xx.a(reed-relay.o)
 .text.reed_interrupt_handler
                0x0000000000002074       0x28 contiki-srf06-cc26xx.a(reed-relay.o)
 .text.power_domains_on
                0x000000000000209c       0x20 contiki-srf06-cc26xx.a(board.o)
 .text.shutdown_handler
                0x00000000000020bc       0x64 contiki-srf06-cc26xx.a(board.o)
 .text.board_init
                0x0000000000002120      0x118 contiki-srf06-cc26xx.a(board.o)
                0x0000000000002120                board_init
 .text.I2CMasterBusy.isra.2
                0x0000000000002238       0x10 contiki-srf06-cc26xx.a(board-i2c.o)
 .text.I2CMasterBusBusy.isra.3
                0x0000000000002248       0x10 contiki-srf06-cc26xx.a(board-i2c.o)
 .text.accessible
                0x0000000000002258       0x24 contiki-srf06-cc26xx.a(board-i2c.o)
 .text.I2CMasterControl.isra.7
                0x000000000000227c       0x10 contiki-srf06-cc26xx.a(board-i2c.o)
 .text.i2c_status
                0x000000000000228c       0x2c contiki-srf06-cc26xx.a(board-i2c.o)
 .text.board_i2c_wakeup
                0x00000000000022b8       0x5c contiki-srf06-cc26xx.a(board-i2c.o)
                0x00000000000022b8                board_i2c_wakeup
 .text.board_i2c_shutdown
                0x0000000000002314       0xa4 contiki-srf06-cc26xx.a(board-i2c.o)
                0x0000000000002314                board_i2c_shutdown
 .text.board_i2c_write
                0x00000000000023b8       0x90 contiki-srf06-cc26xx.a(board-i2c.o)
                0x00000000000023b8                board_i2c_write
 .text.board_i2c_write_single
                0x0000000000002448       0x34 contiki-srf06-cc26xx.a(board-i2c.o)
                0x0000000000002448                board_i2c_write_single
 .text.board_i2c_read
                0x000000000000247c       0x94 contiki-srf06-cc26xx.a(board-i2c.o)
                0x000000000000247c                board_i2c_read
 .text.board_i2c_write_read
                0x0000000000002510       0xec contiki-srf06-cc26xx.a(board-i2c.o)
                0x0000000000002510                board_i2c_write_read
 .text.board_i2c_select
                0x00000000000025fc       0xcc contiki-srf06-cc26xx.a(board-i2c.o)
                0x00000000000025fc                board_i2c_select
 .text.power_domain_on
                0x00000000000026c8       0x20 contiki-srf06-cc26xx.a(clock.o)
 .text.update_clock_variable
                0x00000000000026e8       0x2c contiki-srf06-cc26xx.a(clock.o)
 .text.clock_init
                0x0000000000002714       0x94 contiki-srf06-cc26xx.a(clock.o)
                0x0000000000002714                clock_init
 .text.clock_time
                0x00000000000027a8       0x14 contiki-srf06-cc26xx.a(clock.o)
                0x00000000000027a8                clock_time
 .text.clock_seconds
                0x00000000000027bc       0x18 contiki-srf06-cc26xx.a(clock.o)
                0x00000000000027bc                clock_seconds
 .text.soc_rtc_init
                0x00000000000027d4       0x98 contiki-srf06-cc26xx.a(soc-rtc.o)
                0x00000000000027d4                soc_rtc_init
 .text.soc_rtc_schedule_one_shot
                0x000000000000286c       0x5c contiki-srf06-cc26xx.a(soc-rtc.o)
                0x000000000000286c                soc_rtc_schedule_one_shot
 .text.soc_rtc_last_isr_time
                0x00000000000028c8        0xc contiki-srf06-cc26xx.a(soc-rtc.o)
                0x00000000000028c8                soc_rtc_last_isr_time
 .text.AONRTCIntHandler
                0x00000000000028d4       0x7c contiki-srf06-cc26xx.a(soc-rtc.o)
                0x00000000000028d4                AONRTCIntHandler
 .text.lock_config
                0x0000000000002950       0x18 contiki-srf06-cc26xx.a(contiki-watchdo)
 .text.unlock_config
                0x0000000000002968       0x2c contiki-srf06-cc26xx.a(contiki-watchdo)
 .text.watchdog_init
                0x0000000000002994       0x18 contiki-srf06-cc26xx.a(contiki-watchdo)
                0x0000000000002994                watchdog_init
 .text.watchdog_periodic
                0x00000000000029ac       0x14 contiki-srf06-cc26xx.a(contiki-watchdo)
                0x00000000000029ac                watchdog_periodic
 .text.watchdog_start
                0x00000000000029c0       0x20 contiki-srf06-cc26xx.a(contiki-watchdo)
                0x00000000000029c0                watchdog_start
 .text.ieee_addr_cpy_to
                0x00000000000029e0       0x40 contiki-srf06-cc26xx.a(ieee-addr.o)
                0x00000000000029e0                ieee_addr_cpy_to
 .text.slip_arch_init
                0x0000000000002a20        0xc contiki-srf06-cc26xx.a(slip-arch.o)
                0x0000000000002a20                slip_arch_init
 .text.process_thread_slip_process
                0x0000000000002a2c      0x1b8 contiki-srf06-cc26xx.a(slip.o)
 .text.slip_set_input_callback
                0x0000000000002be4        0xc contiki-srf06-cc26xx.a(slip.o)
                0x0000000000002be4                slip_set_input_callback
 .text.slip_send
                0x0000000000002bf0       0x4c contiki-srf06-cc26xx.a(slip.o)
                0x0000000000002bf0                slip_send
 .text.slip_input_byte
                0x0000000000002c3c       0xa4 contiki-srf06-cc26xx.a(slip.o)
                0x0000000000002c3c                slip_input_byte
 .text.power_and_clock
                0x0000000000002ce0       0x40 contiki-srf06-cc26xx.a(cc26xx-uart.o)
 .text.accessible
                0x0000000000002d20       0x24 contiki-srf06-cc26xx.a(cc26xx-uart.o)
 .text.disable_interrupts
                0x0000000000002d44       0x30 contiki-srf06-cc26xx.a(cc26xx-uart.o)
 .text.enable   0x0000000000002d74       0xc4 contiki-srf06-cc26xx.a(cc26xx-uart.o)
 .text.lpm_drop_handler
                0x0000000000002e38       0xa4 contiki-srf06-cc26xx.a(cc26xx-uart.o)
 .text.cc26xx_uart_init
                0x0000000000002edc       0x28 contiki-srf06-cc26xx.a(cc26xx-uart.o)
                0x0000000000002edc                cc26xx_uart_init
 .text.cc26xx_uart_write_byte
                0x0000000000002f04       0x24 contiki-srf06-cc26xx.a(cc26xx-uart.o)
                0x0000000000002f04                cc26xx_uart_write_byte
 .text.cc26xx_uart_set_input
                0x0000000000002f28       0x60 contiki-srf06-cc26xx.a(cc26xx-uart.o)
                0x0000000000002f28                cc26xx_uart_set_input
 .text.cc26xx_uart_busy
                0x0000000000002f88       0x18 contiki-srf06-cc26xx.a(cc26xx-uart.o)
                0x0000000000002f88                cc26xx_uart_busy
 .text.UART0IntHandler
                0x0000000000002fa0       0x50 contiki-srf06-cc26xx.a(cc26xx-uart.o)
                0x0000000000002fa0                UART0IntHandler
 .text.lpm_shutdown
                0x0000000000002ff0      0x174 contiki-srf06-cc26xx.a(lpm.o)
                0x0000000000002ff0                lpm_shutdown
 .text.lpm_sleep
                0x0000000000003164       0x14 contiki-srf06-cc26xx.a(lpm.o)
                0x0000000000003164                lpm_sleep
 .text.lpm_drop
                0x0000000000003178      0x244 contiki-srf06-cc26xx.a(lpm.o)
                0x0000000000003178                lpm_drop
 .text.lpm_register_module
                0x00000000000033bc        0xc contiki-srf06-cc26xx.a(lpm.o)
                0x00000000000033bc                lpm_register_module
 .text.lpm_unregister_module
                0x00000000000033c8        0xc contiki-srf06-cc26xx.a(lpm.o)
                0x00000000000033c8                lpm_unregister_module
 .text.lpm_init
                0x00000000000033d4       0x20 contiki-srf06-cc26xx.a(lpm.o)
                0x00000000000033d4                lpm_init
 .text.lpm_pin_set_default_state
                0x00000000000033f4       0x2c contiki-srf06-cc26xx.a(lpm.o)
                0x00000000000033f4                lpm_pin_set_default_state
 .text.gpio_interrupt_register_handler
                0x0000000000003420       0x2c contiki-srf06-cc26xx.a(gpio-interrupt.)
                0x0000000000003420                gpio_interrupt_register_handler
 .text.gpio_interrupt_init
                0x000000000000344c       0x24 contiki-srf06-cc26xx.a(gpio-interrupt.)
                0x000000000000344c                gpio_interrupt_init
 .text.GPIOIntHandler
                0x0000000000003470       0x30 contiki-srf06-cc26xx.a(gpio-interrupt.)
                0x0000000000003470                GPIOIntHandler
 .text.oscillators_select_lf_xosc
                0x00000000000034a0       0x4c contiki-srf06-cc26xx.a(oscillators.o)
                0x00000000000034a0                oscillators_select_lf_xosc
 .text.oscillators_switch_to_hf_xosc
                0x00000000000034ec       0x34 contiki-srf06-cc26xx.a(oscillators.o)
                0x00000000000034ec                oscillators_switch_to_hf_xosc
 .text.oscillators_switch_to_hf_rc
                0x0000000000003520       0x38 contiki-srf06-cc26xx.a(oscillators.o)
                0x0000000000003520                oscillators_switch_to_hf_rc
 .text.release_data_entry
                0x0000000000003558       0x14 contiki-srf06-cc26xx.a(ieee-mode.o)
 .text.rf_is_on
                0x000000000000356c       0x18 contiki-srf06-cc26xx.a(ieee-mode.o)
 .text.rx_on    0x0000000000003584       0x50 contiki-srf06-cc26xx.a(ieee-mode.o)
 .text.prepare  0x00000000000035d4       0x1c contiki-srf06-cc26xx.a(ieee-mode.o)
 .text.check_rat_overflow
                0x00000000000035f0       0x64 contiki-srf06-cc26xx.a(ieee-mode.o)
 .text.rf_radio_setup
                0x0000000000003654       0x70 contiki-srf06-cc26xx.a(ieee-mode.o)
 .text.pending_packet
                0x00000000000036c4       0x3c contiki-srf06-cc26xx.a(ieee-mode.o)
 .text.soft_off
                0x0000000000003700       0x2c contiki-srf06-cc26xx.a(ieee-mode.o)
 .text.get_object
                0x000000000000372c       0x40 contiki-srf06-cc26xx.a(ieee-mode.o)
 .text.rx_off   0x000000000000376c       0x48 contiki-srf06-cc26xx.a(ieee-mode.o)
 .text.off      0x00000000000037b4       0x68 contiki-srf06-cc26xx.a(ieee-mode.o)
 .text.set_object
                0x000000000000381c       0x3c contiki-srf06-cc26xx.a(ieee-mode.o)
 .text.on       0x0000000000003858       0x9c contiki-srf06-cc26xx.a(ieee-mode.o)
 .text.set_value
                0x00000000000038f4      0x164 contiki-srf06-cc26xx.a(ieee-mode.o)
 .text.get_value
                0x0000000000003a58      0x110 contiki-srf06-cc26xx.a(ieee-mode.o)
 .text.transmit
                0x0000000000003b68       0xd8 contiki-srf06-cc26xx.a(ieee-mode.o)
 .text.read_frame
                0x0000000000003c40      0x138 contiki-srf06-cc26xx.a(ieee-mode.o)
 .text.handle_rat_overflow
                0x0000000000003d78       0x40 contiki-srf06-cc26xx.a(ieee-mode.o)
 .text.init     0x0000000000003db8       0xf8 contiki-srf06-cc26xx.a(ieee-mode.o)
 .text.request  0x0000000000003eb0       0x14 contiki-srf06-cc26xx.a(soc-trng.o)
 .text.read_number
                0x0000000000003ec4       0x28 contiki-srf06-cc26xx.a(soc-trng.o)
 .text.accessible
                0x0000000000003eec       0x24 contiki-srf06-cc26xx.a(soc-trng.o)
 .text.process_thread_soc_trng_process
                0x0000000000003f10       0x74 contiki-srf06-cc26xx.a(soc-trng.o)
 .text.power_up
                0x0000000000003f84       0x40 contiki-srf06-cc26xx.a(soc-trng.o)
 .text.soc_trng_rand_synchronous
                0x0000000000003fc4       0x9c contiki-srf06-cc26xx.a(soc-trng.o)
                0x0000000000003fc4                soc_trng_rand_synchronous
 .text.TRNGIntHandler
                0x0000000000004060       0x50 contiki-srf06-cc26xx.a(soc-trng.o)
                0x0000000000004060                TRNGIntHandler
 .text.soc_trng_init
                0x00000000000040b0       0x28 contiki-srf06-cc26xx.a(soc-trng.o)
                0x00000000000040b0                soc_trng_init
 .text.printf   0x00000000000040d8       0x20 contiki-srf06-cc26xx.a(dbg-printf.o)
                0x00000000000040d8                printf
 .text.fill_space
                0x00000000000040f8       0x30 contiki-srf06-cc26xx.a(strformat.o)
 .text.format_str_v
                0x0000000000004128      0x6d0 contiki-srf06-cc26xx.a(strformat.o)
                0x0000000000004128                format_str_v
 .text.process_thread_ctimer_process
                0x00000000000047f8       0x80 contiki-srf06-cc26xx.a(ctimer.o)
 .text.ctimer_init
                0x0000000000004878       0x28 contiki-srf06-cc26xx.a(ctimer.o)
                0x0000000000004878                ctimer_init
 .text.ctimer_set_with_process
                0x00000000000048a0       0x44 contiki-srf06-cc26xx.a(ctimer.o)
                0x00000000000048a0                ctimer_set_with_process
 .text.ctimer_set
                0x00000000000048e4       0x14 contiki-srf06-cc26xx.a(ctimer.o)
                0x00000000000048e4                ctimer_set
 .text.ctimer_reset
                0x00000000000048f8       0x38 contiki-srf06-cc26xx.a(ctimer.o)
                0x00000000000048f8                ctimer_reset
 .text.ctimer_restart
                0x0000000000004930       0x38 contiki-srf06-cc26xx.a(ctimer.o)
                0x0000000000004930                ctimer_restart
 .text.ctimer_stop
                0x0000000000004968       0x2c contiki-srf06-cc26xx.a(ctimer.o)
                0x0000000000004968                ctimer_stop
 .text.update_time
                0x0000000000004994       0x40 contiki-srf06-cc26xx.a(etimer.o)
 .text.etimer_request_poll
                0x00000000000049d4        0xc contiki-srf06-cc26xx.a(etimer.o)
                0x00000000000049d4                etimer_request_poll
 .text.process_thread_etimer_process
                0x00000000000049e0       0x94 contiki-srf06-cc26xx.a(etimer.o)
 .text.add_timer
                0x0000000000004a74       0x40 contiki-srf06-cc26xx.a(etimer.o)
 .text.etimer_pending
                0x0000000000004ab4       0x10 contiki-srf06-cc26xx.a(etimer.o)
                0x0000000000004ab4                etimer_pending
 .text.etimer_next_expiration_time
                0x0000000000004ac4       0x14 contiki-srf06-cc26xx.a(etimer.o)
                0x0000000000004ac4                etimer_next_expiration_time
 .text.etimer_stop
                0x0000000000004ad8       0x34 contiki-srf06-cc26xx.a(etimer.o)
                0x0000000000004ad8                etimer_stop
 .text.call_process.part.0
                0x0000000000004b0c       0x38 contiki-srf06-cc26xx.a(process.o)
 .text.exit_process
                0x0000000000004b44       0x84 contiki-srf06-cc26xx.a(process.o)
 .text.do_poll  0x0000000000004bc8       0x30 contiki-srf06-cc26xx.a(process.o)
 .text.process_alloc_event
                0x0000000000004bf8       0x10 contiki-srf06-cc26xx.a(process.o)
                0x0000000000004bf8                process_alloc_event
 .text.process_init
                0x0000000000004c08       0x30 contiki-srf06-cc26xx.a(process.o)
                0x0000000000004c08                process_init
 .text.process_run
                0x0000000000004c38       0x80 contiki-srf06-cc26xx.a(process.o)
                0x0000000000004c38                process_run
 .text.process_nevents
                0x0000000000004cb8       0x14 contiki-srf06-cc26xx.a(process.o)
                0x0000000000004cb8                process_nevents
 .text.process_post
                0x0000000000004ccc       0x3c contiki-srf06-cc26xx.a(process.o)
                0x0000000000004ccc                process_post
 .text.process_post_synch
                0x0000000000004d08       0x14 contiki-srf06-cc26xx.a(process.o)
                0x0000000000004d08                process_post_synch
 .text.process_start
                0x0000000000004d1c       0x30 contiki-srf06-cc26xx.a(process.o)
                0x0000000000004d1c                process_start
 .text.process_poll
                0x0000000000004d4c       0x18 contiki-srf06-cc26xx.a(process.o)
                0x0000000000004d4c                process_poll
 .text.rtimer_set
                0x0000000000004d64       0x24 contiki-srf06-cc26xx.a(rtimer.o)
                0x0000000000004d64                rtimer_set
 .text.rtimer_run_next
                0x0000000000004d88       0x28 contiki-srf06-cc26xx.a(rtimer.o)
                0x0000000000004d88                rtimer_run_next
 .text.process_thread_serial_line_process
                0x0000000000004db0       0x98 contiki-srf06-cc26xx.a(serial-line.o)
 .text.serial_line_init
                0x0000000000004e48       0x24 contiki-srf06-cc26xx.a(serial-line.o)
                0x0000000000004e48                serial_line_init
 .text.uip_ds6_prefix_add
                0x0000000000004e6c       0x60 contiki-srf06-cc26xx.a(uip-ds6.o)
                0x0000000000004e6c                uip_ds6_prefix_add
 .text.uip_ds6_is_addr_onlink
                0x0000000000004ecc       0x40 contiki-srf06-cc26xx.a(uip-ds6.o)
                0x0000000000004ecc                uip_ds6_is_addr_onlink
 .text.uip_ds6_addr_lookup
                0x0000000000004f0c       0x2c contiki-srf06-cc26xx.a(uip-ds6.o)
                0x0000000000004f0c                uip_ds6_addr_lookup
 .text.uip_ds6_get_link_local
                0x0000000000004f38       0x40 contiki-srf06-cc26xx.a(uip-ds6.o)
                0x0000000000004f38                uip_ds6_get_link_local
 .text.uip_ds6_maddr_add
                0x0000000000004f78       0x4c contiki-srf06-cc26xx.a(uip-ds6.o)
                0x0000000000004f78                uip_ds6_maddr_add
 .text.uip_ds6_addr_add
                0x0000000000004fc4       0x98 contiki-srf06-cc26xx.a(uip-ds6.o)
                0x0000000000004fc4                uip_ds6_addr_add
 .text.uip_ds6_maddr_lookup
                0x000000000000505c       0x2c contiki-srf06-cc26xx.a(uip-ds6.o)
                0x000000000000505c                uip_ds6_maddr_lookup
 .text.uip_ds6_addr_rm
                0x0000000000005088       0x44 contiki-srf06-cc26xx.a(uip-ds6.o)
                0x0000000000005088                uip_ds6_addr_rm
 .text.uip_ds6_periodic
                0x00000000000050cc       0x4c contiki-srf06-cc26xx.a(uip-ds6.o)
                0x00000000000050cc                uip_ds6_periodic
 .text.uip_ds6_select_src
                0x0000000000005118       0x98 contiki-srf06-cc26xx.a(uip-ds6.o)
                0x0000000000005118                uip_ds6_select_src
 .text.uip_ds6_compute_reachable_time
                0x00000000000051b0       0x28 contiki-srf06-cc26xx.a(uip-ds6.o)
                0x00000000000051b0                uip_ds6_compute_reachable_time
 .text.uip_ds6_init
                0x00000000000051d8       0xe0 contiki-srf06-cc26xx.a(uip-ds6.o)
                0x00000000000051d8                uip_ds6_init
 .text.call_route_callback
                0x00000000000052b8       0x48 contiki-srf06-cc26xx.a(uip-ds6-route.o)
 .text.uip_ds6_route_init
                0x0000000000005300       0x4c contiki-srf06-cc26xx.a(uip-ds6-route.o)
                0x0000000000005300                uip_ds6_route_init
 .text.uip_ds6_route_nexthop
                0x000000000000534c       0x20 contiki-srf06-cc26xx.a(uip-ds6-route.o)
                0x000000000000534c                uip_ds6_route_nexthop
 .text.uip_ds6_route_head
                0x000000000000536c        0xc contiki-srf06-cc26xx.a(uip-ds6-route.o)
                0x000000000000536c                uip_ds6_route_head
 .text.uip_ds6_route_is_nexthop
                0x0000000000005378       0x20 contiki-srf06-cc26xx.a(uip-ds6-route.o)
                0x0000000000005378                uip_ds6_route_is_nexthop
 .text.uip_ds6_route_lookup
                0x0000000000005398       0x64 contiki-srf06-cc26xx.a(uip-ds6-route.o)
                0x0000000000005398                uip_ds6_route_lookup
 .text.uip_ds6_route_rm
                0x00000000000053fc       0x9c contiki-srf06-cc26xx.a(uip-ds6-route.o)
                0x00000000000053fc                uip_ds6_route_rm
 .text.rm_routelist
                0x0000000000005498       0x30 contiki-srf06-cc26xx.a(uip-ds6-route.o)
 .text.uip_ds6_route_add
                0x00000000000054c8      0x110 contiki-srf06-cc26xx.a(uip-ds6-route.o)
                0x00000000000054c8                uip_ds6_route_add
 .text.uip_ds6_defrt_rm
                0x00000000000055d8       0x44 contiki-srf06-cc26xx.a(uip-ds6-route.o)
                0x00000000000055d8                uip_ds6_defrt_rm
 .text.uip_ds6_defrt_lookup
                0x000000000000561c       0x2c contiki-srf06-cc26xx.a(uip-ds6-route.o)
                0x000000000000561c                uip_ds6_defrt_lookup
 .text.uip_ds6_defrt_add
                0x0000000000005648       0x64 contiki-srf06-cc26xx.a(uip-ds6-route.o)
                0x0000000000005648                uip_ds6_defrt_add
 .text.uip_ds6_defrt_choose
                0x00000000000056ac       0x30 contiki-srf06-cc26xx.a(uip-ds6-route.o)
                0x00000000000056ac                uip_ds6_defrt_choose
 .text.uip_ds6_defrt_periodic
                0x00000000000056dc       0x30 contiki-srf06-cc26xx.a(uip-ds6-route.o)
                0x00000000000056dc                uip_ds6_defrt_periodic
 .text.upper_layer_chksum
                0x000000000000570c       0x54 contiki-srf06-cc26xx.a(uip6.o)
 .text.ext_hdr_options_process
                0x0000000000005760       0xa8 contiki-srf06-cc26xx.a(uip6.o)
 .text.uip_add32
                0x0000000000005808       0x54 contiki-srf06-cc26xx.a(uip6.o)
                0x0000000000005808                uip_add32
 .text.unlikely.uip_add_rcv_nxt
                0x000000000000585c       0x2c contiki-srf06-cc26xx.a(uip6.o)
 .text.uip_init
                0x0000000000005888       0x58 contiki-srf06-cc26xx.a(uip6.o)
                0x0000000000005888                uip_init
 .text.remove_ext_hdr
                0x00000000000058e0       0x58 contiki-srf06-cc26xx.a(uip6.o)
                0x00000000000058e0                remove_ext_hdr
 .text.uip_unlisten
                0x0000000000005938       0x20 contiki-srf06-cc26xx.a(uip6.o)
                0x0000000000005938                uip_unlisten
 .text.uip_process
                0x0000000000005958      0xd14 contiki-srf06-cc26xx.a(uip6.o)
                0x0000000000005958                uip_process
 .text.uip_ds6_nbr_rm
                0x000000000000666c       0x20 contiki-srf06-cc26xx.a(uip-ds6-nbr.o)
                0x000000000000666c                uip_ds6_nbr_rm
 .text.uip_ds6_neighbors_init
                0x000000000000668c       0x1c contiki-srf06-cc26xx.a(uip-ds6-nbr.o)
                0x000000000000668c                uip_ds6_neighbors_init
 .text.uip_ds6_nbr_add
                0x00000000000066a8       0x3c contiki-srf06-cc26xx.a(uip-ds6-nbr.o)
                0x00000000000066a8                uip_ds6_nbr_add
 .text.uip_ds6_nbr_get_ll
                0x00000000000066e4       0x10 contiki-srf06-cc26xx.a(uip-ds6-nbr.o)
                0x00000000000066e4                uip_ds6_nbr_get_ll
 .text.uip_ds6_nbr_lookup
                0x00000000000066f4       0x38 contiki-srf06-cc26xx.a(uip-ds6-nbr.o)
                0x00000000000066f4                uip_ds6_nbr_lookup
 .text.uip_ds6_nbr_ll_lookup
                0x000000000000672c       0x10 contiki-srf06-cc26xx.a(uip-ds6-nbr.o)
                0x000000000000672c                uip_ds6_nbr_ll_lookup
 .text.uip_ds6_link_neighbor_callback
                0x000000000000673c       0x34 contiki-srf06-cc26xx.a(uip-ds6-nbr.o)
                0x000000000000673c                uip_ds6_link_neighbor_callback
 .text.ns_input
                0x0000000000006770      0x274 contiki-srf06-cc26xx.a(uip-nd6.o)
 .text.uip_nd6_init
                0x00000000000069e4        0xc contiki-srf06-cc26xx.a(uip-nd6.o)
                0x00000000000069e4                uip_nd6_init
 .text.clear_fragments
                0x00000000000069f0       0x3c contiki-srf06-cc26xx.a(sicslowpan.o)
 .text.sicslowpan_init
                0x0000000000006a2c       0x24 contiki-srf06-cc26xx.a(sicslowpan.o)
                0x0000000000006a2c                sicslowpan_init
 .text.compress_addr_64
                0x0000000000006a50       0x90 contiki-srf06-cc26xx.a(sicslowpan.o)
 .text.set_packet_attrs
                0x0000000000006ae0       0x44 contiki-srf06-cc26xx.a(sicslowpan.o)
 .text.addr_context_lookup_by_prefix
                0x0000000000006b24       0x28 contiki-srf06-cc26xx.a(sicslowpan.o)
 .text.send_packet
                0x0000000000006b4c       0x24 contiki-srf06-cc26xx.a(sicslowpan.o)
 .text.packet_sent
                0x0000000000006b70       0x28 contiki-srf06-cc26xx.a(sicslowpan.o)
 .text.store_fragment
                0x0000000000006b98       0x58 contiki-srf06-cc26xx.a(sicslowpan.o)
 .text.uncompress_addr
                0x0000000000006bf0       0x7c contiki-srf06-cc26xx.a(sicslowpan.o)
 .text.output   0x0000000000006c6c      0x674 contiki-srf06-cc26xx.a(sicslowpan.o)
 .text.add_fragment
                0x00000000000072e0      0x118 contiki-srf06-cc26xx.a(sicslowpan.o)
 .text.input    0x00000000000073f8      0x5b4 contiki-srf06-cc26xx.a(sicslowpan.o)
 .text.start_periodic_tcp_timer
                0x00000000000079ac       0x1c contiki-srf06-cc26xx.a(tcpip.o)
 .text.tcpip_output
                0x00000000000079c8       0x14 contiki-srf06-cc26xx.a(tcpip.o)
                0x00000000000079c8                tcpip_output
 .text.tcpip_set_outputfunc
                0x00000000000079dc        0xc contiki-srf06-cc26xx.a(tcpip.o)
                0x00000000000079dc                tcpip_set_outputfunc
 .text.tcpip_icmp6_call
                0x00000000000079e8       0x28 contiki-srf06-cc26xx.a(tcpip.o)
                0x00000000000079e8                tcpip_icmp6_call
 .text.tcpip_input
                0x0000000000007a10       0x24 contiki-srf06-cc26xx.a(tcpip.o)
                0x0000000000007a10                tcpip_input
 .text.tcpip_ipv6_output
                0x0000000000007a34       0xe4 contiki-srf06-cc26xx.a(tcpip.o)
                0x0000000000007a34                tcpip_ipv6_output
 .text.process_thread_tcpip_process
                0x0000000000007b18      0x1b0 contiki-srf06-cc26xx.a(tcpip.o)
 .text.tcpip_uipcall
                0x0000000000007cc8       0x68 contiki-srf06-cc26xx.a(tcpip.o)
                0x0000000000007cc8                tcpip_uipcall
 .text.uip_debug_ipaddr_print
                0x0000000000007d30       0xa0 contiki-srf06-cc26xx.a(uip-debug.o)
                0x0000000000007d30                uip_debug_ipaddr_print
 .text.rpl_set_preferred_parent
                0x0000000000007dd0       0x28 contiki-srf06-cc26xx.a(rpl-dag.o)
 .text.set_ip_from_prefix
                0x0000000000007df8       0x2c contiki-srf06-cc26xx.a(rpl-dag.o)
 .text.find_parent_any_dag_any_instance
                0x0000000000007e24       0x1c contiki-srf06-cc26xx.a(rpl-dag.o)
 .text.rpl_dag_init
                0x0000000000007e40       0x14 contiki-srf06-cc26xx.a(rpl-dag.o)
                0x0000000000007e40                rpl_dag_init
 .text.rpl_get_parent
                0x0000000000007e54       0x10 contiki-srf06-cc26xx.a(rpl-dag.o)
                0x0000000000007e54                rpl_get_parent
 .text.rpl_get_parent_lladdr
                0x0000000000007e64       0x10 contiki-srf06-cc26xx.a(rpl-dag.o)
                0x0000000000007e64                rpl_get_parent_lladdr
 .text.best_parent
                0x0000000000007e74       0x80 contiki-srf06-cc26xx.a(rpl-dag.o)
 .text.rpl_alloc_instance
                0x0000000000007ef4       0x34 contiki-srf06-cc26xx.a(rpl-dag.o)
                0x0000000000007ef4                rpl_alloc_instance
 .text.rpl_add_parent
                0x0000000000007f28       0x30 contiki-srf06-cc26xx.a(rpl-dag.o)
                0x0000000000007f28                rpl_add_parent
 .text.rpl_remove_parent
                0x0000000000007f58       0x1c contiki-srf06-cc26xx.a(rpl-dag.o)
                0x0000000000007f58                rpl_remove_parent
 .text.remove_parents.constprop.3
                0x0000000000007f74       0x2c contiki-srf06-cc26xx.a(rpl-dag.o)
 .text.rpl_get_any_dag
                0x0000000000007fa0       0x18 contiki-srf06-cc26xx.a(rpl-dag.o)
                0x0000000000007fa0                rpl_get_any_dag
 .text.rpl_get_instance
                0x0000000000007fb8       0x20 contiki-srf06-cc26xx.a(rpl-dag.o)
                0x0000000000007fb8                rpl_get_instance
 .text.rpl_find_of
                0x0000000000007fd8       0x14 contiki-srf06-cc26xx.a(rpl-dag.o)
                0x0000000000007fd8                rpl_find_of
 .text.rpl_set_root
                0x0000000000007fec      0x114 contiki-srf06-cc26xx.a(rpl-dag.o)
                0x0000000000007fec                rpl_set_root
 .text.rpl_join_instance
                0x0000000000008100      0x13c contiki-srf06-cc26xx.a(rpl-dag.o)
                0x0000000000008100                rpl_join_instance
 .text.rpl_local_repair
                0x000000000000823c       0x7c contiki-srf06-cc26xx.a(rpl-dag.o)
                0x000000000000823c                rpl_local_repair
 .text.rpl_recalculate_ranks
                0x00000000000082b8       0x3c contiki-srf06-cc26xx.a(rpl-dag.o)
                0x00000000000082b8                rpl_recalculate_ranks
 .text.new_dio_interval
                0x00000000000082f4       0x58 contiki-srf06-cc26xx.a(rpl-timers.o)
 .text.handle_periodic_timer
                0x000000000000834c       0x4c contiki-srf06-cc26xx.a(rpl-timers.o)
 .text.set_dao_lifetime_timer
                0x0000000000008398       0x44 contiki-srf06-cc26xx.a(rpl-timers.o)
 .text.handle_dio_timer
                0x00000000000083dc       0x80 contiki-srf06-cc26xx.a(rpl-timers.o)
 .text.schedule_dao
                0x000000000000845c       0x54 contiki-srf06-cc26xx.a(rpl-timers.o)
 .text.handle_dao_timer
                0x00000000000084b0       0x58 contiki-srf06-cc26xx.a(rpl-timers.o)
 .text.rpl_reset_periodic_timer
                0x0000000000008508       0x34 contiki-srf06-cc26xx.a(rpl-timers.o)
                0x0000000000008508                rpl_reset_periodic_timer
 .text.rpl_schedule_unicast_dio_immediately
                0x000000000000853c       0x14 contiki-srf06-cc26xx.a(rpl-timers.o)
                0x000000000000853c                rpl_schedule_unicast_dio_immediately
 .text.get_probing_target
                0x0000000000008550       0xcc contiki-srf06-cc26xx.a(rpl-timers.o)
                0x0000000000008550                get_probing_target
 .text.rpl_schedule_probing
                0x000000000000861c       0x20 contiki-srf06-cc26xx.a(rpl-timers.o)
                0x000000000000861c                rpl_schedule_probing
 .text.update_hbh_header
                0x000000000000863c       0xc4 contiki-srf06-cc26xx.a(rpl-ext-header.)
 .text.insert_hbh_header
                0x0000000000008700       0x9c contiki-srf06-cc26xx.a(rpl-ext-header.)
 .text.rpl_verify_hbh_header
                0x000000000000879c       0xec contiki-srf06-cc26xx.a(rpl-ext-header.)
                0x000000000000879c                rpl_verify_hbh_header
 .text.rpl_remove_header
                0x0000000000008888       0x78 contiki-srf06-cc26xx.a(rpl-ext-header.)
                0x0000000000008888                rpl_remove_header
 .text.rpl_update_header
                0x0000000000008900       0x64 contiki-srf06-cc26xx.a(rpl-ext-header.)
                0x0000000000008900                rpl_update_header
 .text.rpl_get_mode
                0x0000000000008964        0xc contiki-srf06-cc26xx.a(rpl.o)
                0x0000000000008964                rpl_get_mode
 .text.rpl_purge_routes
                0x0000000000008970       0x8c contiki-srf06-cc26xx.a(rpl.o)
                0x0000000000008970                rpl_purge_routes
 .text.rpl_add_route
                0x00000000000089fc       0x7c contiki-srf06-cc26xx.a(rpl.o)
                0x00000000000089fc                rpl_add_route
 .text.rpl_link_neighbor_callback
                0x0000000000008a78       0x60 contiki-srf06-cc26xx.a(rpl.o)
                0x0000000000008a78                rpl_link_neighbor_callback
 .text.rpl_ipv6_neighbor_callback
                0x0000000000008ad8       0x54 contiki-srf06-cc26xx.a(rpl.o)
                0x0000000000008ad8                rpl_ipv6_neighbor_callback
 .text.rpl_purge_dags
                0x0000000000008b2c       0x54 contiki-srf06-cc26xx.a(rpl.o)
                0x0000000000008b2c                rpl_purge_dags
 .text.rpl_init
                0x0000000000008b80       0x54 contiki-srf06-cc26xx.a(rpl.o)
                0x0000000000008b80                rpl_init
 .text.dao_ack_input
                0x0000000000008bd4       0x14 contiki-srf06-cc26xx.a(rpl-icmp6.o)
 .text.dio_input
                0x0000000000008be8      0x248 contiki-srf06-cc26xx.a(rpl-icmp6.o)
 .text.dao_input
                0x0000000000008e30      0x270 contiki-srf06-cc26xx.a(rpl-icmp6.o)
 .text.dis_output
                0x00000000000090a0       0x54 contiki-srf06-cc26xx.a(rpl-icmp6.o)
                0x00000000000090a0                dis_output
 .text.dio_output
                0x00000000000090f4      0x218 contiki-srf06-cc26xx.a(rpl-icmp6.o)
                0x00000000000090f4                dio_output
 .text.dis_input
                0x000000000000930c       0x50 contiki-srf06-cc26xx.a(rpl-icmp6.o)
 .text.dao_output_target
                0x000000000000935c      0x100 contiki-srf06-cc26xx.a(rpl-icmp6.o)
                0x000000000000935c                dao_output_target
 .text.dao_output
                0x000000000000945c       0x90 contiki-srf06-cc26xx.a(rpl-icmp6.o)
                0x000000000000945c                dao_output
 .text.rpl_icmp6_register_handlers
                0x00000000000094ec       0x30 contiki-srf06-cc26xx.a(rpl-icmp6.o)
                0x00000000000094ec                rpl_icmp6_register_handlers
 .text.TrimAfterColdResetWakeupFromShutDown
                0x000000000000951c       0xd8 contiki-srf06-cc26xx.a(setup.o)
 .text.NOROM_SetupTrimDevice
                0x00000000000095f4       0xa0 contiki-srf06-cc26xx.a(setup.o)
                0x00000000000095f4                NOROM_SetupTrimDevice
 .text.SafeHapiVoid
                0x0000000000009694       0x28 contiki-srf06-cc26xx.a(adi.o)
                0x0000000000009694                SafeHapiVoid
 .text.AuxAdiDdiSafeWrite.constprop.1
                0x00000000000096bc       0x28 contiki-srf06-cc26xx.a(ddi.o)
 .text.NOROM_DDI16BitfieldRead
                0x00000000000096e4       0x40 contiki-srf06-cc26xx.a(ddi.o)
                0x00000000000096e4                NOROM_DDI16BitfieldRead
 .text.NOROM_PowerCtrlSourceSet
                0x0000000000009724       0x2c contiki-srf06-cc26xx.a(pwr_ctrl.o)
                0x0000000000009724                NOROM_PowerCtrlSourceSet
 .text.NOROM_OSCClockSourceSet
                0x0000000000009750       0x4c contiki-srf06-cc26xx.a(osc.o)
                0x0000000000009750                NOROM_OSCClockSourceSet
 .text.NOROM_OSCClockSourceGet
                0x000000000000979c       0x24 contiki-srf06-cc26xx.a(osc.o)
                0x000000000000979c                NOROM_OSCClockSourceGet
 .text.NOROM_TRNGConfigure
                0x00000000000097c0       0x34 contiki-srf06-cc26xx.a(trng.o)
                0x00000000000097c0                NOROM_TRNGConfigure
 .text.NOROM_SysCtrlSetRechargeBeforePowerDown
                0x00000000000097f4      0x204 contiki-srf06-cc26xx.a(sys_ctrl.o)
                0x00000000000097f4                NOROM_SysCtrlSetRechargeBeforePowerDown
 .text.NOROM_SysCtrlAdjustRechargeAfterPowerDown
                0x00000000000099f8       0x64 contiki-srf06-cc26xx.a(sys_ctrl.o)
                0x00000000000099f8                NOROM_SysCtrlAdjustRechargeAfterPowerDown
 .text.NOROM_SysCtrl_DCDC_VoltageConditionalControl
                0x0000000000009a5c       0x78 contiki-srf06-cc26xx.a(sys_ctrl.o)
                0x0000000000009a5c                NOROM_SysCtrl_DCDC_VoltageConditionalControl
 .text.NOROM_AONRTCCurrentCompareValueGet
                0x0000000000009ad4       0x20 contiki-srf06-cc26xx.a(aon_rtc.o)
                0x0000000000009ad4                NOROM_AONRTCCurrentCompareValueGet
 .text.NOROM_ChipInfo_GetSupportedProtocol_BV
                0x0000000000009af4       0x10 contiki-srf06-cc26xx.a(chipinfo.o)
                0x0000000000009af4                NOROM_ChipInfo_GetSupportedProtocol_BV
 .text.NOROM_ChipInfo_GetChipFamily
                0x0000000000009b04       0x4c contiki-srf06-cc26xx.a(chipinfo.o)
                0x0000000000009b04                NOROM_ChipInfo_GetChipFamily
 .text.NOROM_ChipInfo_GetChipType
                0x0000000000009b50       0x58 contiki-srf06-cc26xx.a(chipinfo.o)
                0x0000000000009b50                NOROM_ChipInfo_GetChipType
 .text.NOROM_ChipInfo_GetHwRevision
                0x0000000000009ba8       0x6c contiki-srf06-cc26xx.a(chipinfo.o)
                0x0000000000009ba8                NOROM_ChipInfo_GetHwRevision
 .text.queuebuf_init
                0x0000000000009c14       0x1c contiki-srf06-cc26xx.a(queuebuf.o)
                0x0000000000009c14                queuebuf_init
 .text.queuebuf_numfree
                0x0000000000009c30        0xc contiki-srf06-cc26xx.a(queuebuf.o)
                0x0000000000009c30                queuebuf_numfree
 .text.queuebuf_new_from_packetbuf
                0x0000000000009c3c       0x44 contiki-srf06-cc26xx.a(queuebuf.o)
                0x0000000000009c3c                queuebuf_new_from_packetbuf
 .text.queuebuf_free
                0x0000000000009c80       0x2c contiki-srf06-cc26xx.a(queuebuf.o)
                0x0000000000009c80                queuebuf_free
 .text.queuebuf_to_packetbuf
                0x0000000000009cac       0x30 contiki-srf06-cc26xx.a(queuebuf.o)
                0x0000000000009cac                queuebuf_to_packetbuf
 .text.index_from_key
                0x0000000000009cdc       0x20 contiki-srf06-cc26xx.a(nbr-table.o)
 .text.index_from_lladdr
                0x0000000000009cfc       0x40 contiki-srf06-cc26xx.a(nbr-table.o)
 .text.key_from_item
                0x0000000000009d3c       0x2c contiki-srf06-cc26xx.a(nbr-table.o)
 .text.nbr_get_bit.constprop.0
                0x0000000000009d68       0x30 contiki-srf06-cc26xx.a(nbr-table.o)
 .text.remove_key
                0x0000000000009d98       0x58 contiki-srf06-cc26xx.a(nbr-table.o)
 .text.nbr_table_register
                0x0000000000009df0       0x28 contiki-srf06-cc26xx.a(nbr-table.o)
                0x0000000000009df0                nbr_table_register
 .text.nbr_table_head
                0x0000000000009e18       0x34 contiki-srf06-cc26xx.a(nbr-table.o)
                0x0000000000009e18                nbr_table_head
 .text.nbr_table_add_lladdr
                0x0000000000009e4c      0x118 contiki-srf06-cc26xx.a(nbr-table.o)
                0x0000000000009e4c                nbr_table_add_lladdr
 .text.nbr_table_remove
                0x0000000000009f64       0x2c contiki-srf06-cc26xx.a(nbr-table.o)
                0x0000000000009f64                nbr_table_remove
 .text.nbr_table_lock
                0x0000000000009f90       0x14 contiki-srf06-cc26xx.a(nbr-table.o)
                0x0000000000009f90                nbr_table_lock
 .text.nbr_table_unlock
                0x0000000000009fa4       0x14 contiki-srf06-cc26xx.a(nbr-table.o)
                0x0000000000009fa4                nbr_table_unlock
 .text.nbr_table_update_lladdr
                0x0000000000009fb8       0x4c contiki-srf06-cc26xx.a(nbr-table.o)
                0x0000000000009fb8                nbr_table_update_lladdr
 .text.packetbuf_hdrreduce
                0x000000000000a004       0x28 contiki-srf06-cc26xx.a(packetbuf.o)
                0x000000000000a004                packetbuf_hdrreduce
 .text.packetbuf_set_datalen
                0x000000000000a02c        0xc contiki-srf06-cc26xx.a(packetbuf.o)
                0x000000000000a02c                packetbuf_set_datalen
 .text.packetbuf_hdrptr
                0x000000000000a038        0x8 contiki-srf06-cc26xx.a(packetbuf.o)
                0x000000000000a038                packetbuf_hdrptr
 .text.packetbuf_datalen
                0x000000000000a040        0xc contiki-srf06-cc26xx.a(packetbuf.o)
                0x000000000000a040                packetbuf_datalen
 .text.packetbuf_hdrlen
                0x000000000000a04c       0x18 contiki-srf06-cc26xx.a(packetbuf.o)
                0x000000000000a04c                packetbuf_hdrlen
 .text.packetbuf_dataptr
                0x000000000000a064       0x10 contiki-srf06-cc26xx.a(packetbuf.o)
                0x000000000000a064                packetbuf_dataptr
 .text.packetbuf_copyto
                0x000000000000a074       0x40 contiki-srf06-cc26xx.a(packetbuf.o)
                0x000000000000a074                packetbuf_copyto
 .text.packetbuf_totlen
                0x000000000000a0b4       0x14 contiki-srf06-cc26xx.a(packetbuf.o)
                0x000000000000a0b4                packetbuf_totlen
 .text.packetbuf_hdralloc
                0x000000000000a0c8       0x3c contiki-srf06-cc26xx.a(packetbuf.o)
                0x000000000000a0c8                packetbuf_hdralloc
 .text.packetbuf_attr_clear
                0x000000000000a104       0x34 contiki-srf06-cc26xx.a(packetbuf.o)
                0x000000000000a104                packetbuf_attr_clear
 .text.packetbuf_clear
                0x000000000000a138       0x20 contiki-srf06-cc26xx.a(packetbuf.o)
                0x000000000000a138                packetbuf_clear
 .text.packetbuf_copyfrom
                0x000000000000a158       0x2c contiki-srf06-cc26xx.a(packetbuf.o)
                0x000000000000a158                packetbuf_copyfrom
 .text.packetbuf_attr_copyto
                0x000000000000a184       0x34 contiki-srf06-cc26xx.a(packetbuf.o)
                0x000000000000a184                packetbuf_attr_copyto
 .text.packetbuf_attr_copyfrom
                0x000000000000a1b8       0x34 contiki-srf06-cc26xx.a(packetbuf.o)
                0x000000000000a1b8                packetbuf_attr_copyfrom
 .text.packetbuf_set_attr
                0x000000000000a1ec       0x10 contiki-srf06-cc26xx.a(packetbuf.o)
                0x000000000000a1ec                packetbuf_set_attr
 .text.packetbuf_attr
                0x000000000000a1fc        0xc contiki-srf06-cc26xx.a(packetbuf.o)
                0x000000000000a1fc                packetbuf_attr
 .text.packetbuf_set_addr
                0x000000000000a208       0x18 contiki-srf06-cc26xx.a(packetbuf.o)
                0x000000000000a208                packetbuf_set_addr
 .text.packetbuf_addr
                0x000000000000a220       0x10 contiki-srf06-cc26xx.a(packetbuf.o)
                0x000000000000a220                packetbuf_addr
 .text.packetbuf_holds_broadcast
                0x000000000000a230       0x10 contiki-srf06-cc26xx.a(packetbuf.o)
                0x000000000000a230                packetbuf_holds_broadcast
 .text.netstack_init
                0x000000000000a240       0x38 contiki-srf06-cc26xx.a(netstack.o)
                0x000000000000a240                netstack_init
 .text.periodic
                0x000000000000a278       0x2c contiki-srf06-cc26xx.a(link-stats.o)
 .text.link_stats_from_lladdr
                0x000000000000a2a4        0xc contiki-srf06-cc26xx.a(link-stats.o)
                0x000000000000a2a4                link_stats_from_lladdr
 .text.link_stats_packet_sent
                0x000000000000a2b0       0x78 contiki-srf06-cc26xx.a(link-stats.o)
                0x000000000000a2b0                link_stats_packet_sent
 .text.link_stats_input_callback
                0x000000000000a328       0x4c contiki-srf06-cc26xx.a(link-stats.o)
                0x000000000000a328                link_stats_input_callback
 .text.link_stats_init
                0x000000000000a374       0x28 contiki-srf06-cc26xx.a(link-stats.o)
                0x000000000000a374                link_stats_init
 .text.create_frame.isra.0
                0x000000000000a39c      0x12c contiki-srf06-cc26xx.a(framer-802154.o)
 .text.input_packet
                0x000000000000a4c8       0x10 contiki-srf06-cc26xx.a(csma.o)
 .text.on       0x000000000000a4d8       0x10 contiki-srf06-cc26xx.a(csma.o)
 .text.off      0x000000000000a4e8       0x10 contiki-srf06-cc26xx.a(csma.o)
 .text.channel_check_interval
                0x000000000000a4f8       0x10 contiki-srf06-cc26xx.a(csma.o)
 .text.transmit_packet_list
                0x000000000000a508       0x24 contiki-srf06-cc26xx.a(csma.o)
 .text.schedule_transmission
                0x000000000000a52c       0x4c contiki-srf06-cc26xx.a(csma.o)
 .text.send_packet
                0x000000000000a578      0x138 contiki-srf06-cc26xx.a(csma.o)
 .text.init     0x000000000000a6b0       0x24 contiki-srf06-cc26xx.a(csma.o)
 .text.tx_done  0x000000000000a6d4       0x88 contiki-srf06-cc26xx.a(csma.o)
 .text.frame802154_get_pan_id
                0x000000000000a75c        0xc contiki-srf06-cc26xx.a(frame802154.o)
                0x000000000000a75c                frame802154_get_pan_id
 .text.frame802154_parse
                0x000000000000a768      0x16c contiki-srf06-cc26xx.a(frame802154.o)
                0x000000000000a768                frame802154_parse
 .text.mac_call_sent_callback
                0x000000000000a8d4       0x60 contiki-srf06-cc26xx.a(mac.o)
                0x000000000000a8d4                mac_call_sent_callback
 .text.init     0x000000000000a934       0x40 contiki-srf06-cc26xx.a(contikimac.o)
 .text.on       0x000000000000a974       0x28 contiki-srf06-cc26xx.a(contikimac.o)
 .text.off      0x000000000000a99c       0x34 contiki-srf06-cc26xx.a(contikimac.o)
 .text.recv_burst_off
                0x000000000000a9d0       0x14 contiki-srf06-cc26xx.a(contikimac.o)
 .text.powercycle_turn_radio_off
                0x000000000000a9e4       0x1c contiki-srf06-cc26xx.a(contikimac.o)
 .text.turn_off
                0x000000000000aa00       0x34 contiki-srf06-cc26xx.a(contikimac.o)
 .text.turn_on  0x000000000000aa34       0x40 contiki-srf06-cc26xx.a(contikimac.o)
 .text.schedule_powercycle_fixed
                0x000000000000aa74       0x34 contiki-srf06-cc26xx.a(contikimac.o)
 .text.input_packet
                0x000000000000aaa8       0x9c contiki-srf06-cc26xx.a(contikimac.o)
 .text.send_packet.isra.8
                0x000000000000ab44      0x204 contiki-srf06-cc26xx.a(contikimac.o)
 .text.qsend_list
                0x000000000000ad48       0xd0 contiki-srf06-cc26xx.a(contikimac.o)
 .text.powercycle_wrapper
                0x000000000000ae18      0x1d0 contiki-srf06-cc26xx.a(contikimac.o)
 .text.input    0x000000000000afe8       0x10 contiki-srf06-cc26xx.a(nullsec.o)
 .text.send     0x000000000000aff8       0x20 contiki-srf06-cc26xx.a(nullsec.o)
 .text.sensor_common_write_reg
                0x000000000000b018       0x2c contiki-srf06-cc26xx.a(sensor-common.o)
                0x000000000000b018                sensor_common_write_reg
 .text.verify_part
                0x000000000000b044       0x74 contiki-srf06-cc26xx.a(ext-flash.o)
 .text.wait_ready
                0x000000000000b0b8       0x5c contiki-srf06-cc26xx.a(ext-flash.o)
 .text.ext_flash_open
                0x000000000000b114       0x54 contiki-srf06-cc26xx.a(ext-flash.o)
                0x000000000000b114                ext_flash_open
 .text.ext_flash_close
                0x000000000000b168       0x4c contiki-srf06-cc26xx.a(ext-flash.o)
                0x000000000000b168                ext_flash_close
 .text.buzzer_init
                0x000000000000b1b4        0xc contiki-srf06-cc26xx.a(buzzer.o)
                0x000000000000b1b4                buzzer_init
 .text.buzzer_stop
                0x000000000000b1c0       0x74 contiki-srf06-cc26xx.a(buzzer.o)
                0x000000000000b1c0                buzzer_stop
 .text.accessible
                0x000000000000b234       0x24 contiki-srf06-cc26xx.a(board-spi.o)
 .text.board_spi_write
                0x000000000000b258       0x3c contiki-srf06-cc26xx.a(board-spi.o)
                0x000000000000b258                board_spi_write
 .text.board_spi_read
                0x000000000000b294       0x48 contiki-srf06-cc26xx.a(board-spi.o)
                0x000000000000b294                board_spi_read
 .text.board_spi_flush
                0x000000000000b2dc       0x24 contiki-srf06-cc26xx.a(board-spi.o)
                0x000000000000b2dc                board_spi_flush
 .text.board_spi_open
                0x000000000000b300       0xb4 contiki-srf06-cc26xx.a(board-spi.o)
                0x000000000000b300                board_spi_open
 .text.board_spi_close
                0x000000000000b3b4       0x6c contiki-srf06-cc26xx.a(board-spi.o)
                0x000000000000b3b4                board_spi_close
 .text.aux_ctrl_power_up
                0x000000000000b420       0x28 contiki-srf06-cc26xx.a(aux-ctrl.o)
                0x000000000000b420                aux_ctrl_power_up
 .text.aux_ctrl_register_consumer
                0x000000000000b448       0x44 contiki-srf06-cc26xx.a(aux-ctrl.o)
                0x000000000000b448                aux_ctrl_register_consumer
 .text.aux_ctrl_power_down
                0x000000000000b48c       0x68 contiki-srf06-cc26xx.a(aux-ctrl.o)
                0x000000000000b48c                aux_ctrl_power_down
 .text.aux_ctrl_unregister_consumer
                0x000000000000b4f4       0x28 contiki-srf06-cc26xx.a(aux-ctrl.o)
                0x000000000000b4f4                aux_ctrl_unregister_consumer
 .text.process_thread_rf_core_process
                0x000000000000b51c       0x58 contiki-srf06-cc26xx.a(rf-core.o)
 .text.rf_core_is_accessible
                0x000000000000b574       0x10 contiki-srf06-cc26xx.a(rf-core.o)
                0x000000000000b574                rf_core_is_accessible
 .text.rf_core_send_cmd
                0x000000000000b584       0x80 contiki-srf06-cc26xx.a(rf-core.o)
                0x000000000000b584                rf_core_send_cmd
 .text.rf_core_wait_cmd_done
                0x000000000000b604       0x2c contiki-srf06-cc26xx.a(rf-core.o)
                0x000000000000b604                rf_core_wait_cmd_done
 .text.rf_core_power_up
                0x000000000000b630       0xac contiki-srf06-cc26xx.a(rf-core.o)
                0x000000000000b630                rf_core_power_up
 .text.rf_core_set_modesel
                0x000000000000b6dc       0x38 contiki-srf06-cc26xx.a(rf-core.o)
                0x000000000000b6dc                rf_core_set_modesel
 .text.rf_core_setup_interrupts
                0x000000000000b714       0x64 contiki-srf06-cc26xx.a(rf-core.o)
                0x000000000000b714                rf_core_setup_interrupts
 .text.rf_core_cmd_done_en
                0x000000000000b778       0x24 contiki-srf06-cc26xx.a(rf-core.o)
                0x000000000000b778                rf_core_cmd_done_en
 .text.rf_core_cmd_done_dis
                0x000000000000b79c       0x18 contiki-srf06-cc26xx.a(rf-core.o)
                0x000000000000b79c                rf_core_cmd_done_dis
 .text.rf_core_get_last_radio_op
                0x000000000000b7b4        0xc contiki-srf06-cc26xx.a(rf-core.o)
                0x000000000000b7b4                rf_core_get_last_radio_op
 .text.rf_core_start_rat
                0x000000000000b7c0       0x3c contiki-srf06-cc26xx.a(rf-core.o)
                0x000000000000b7c0                rf_core_start_rat
 .text.rf_core_stop_rat
                0x000000000000b7fc       0x44 contiki-srf06-cc26xx.a(rf-core.o)
                0x000000000000b7fc                rf_core_stop_rat
 .text.rf_core_power_down
                0x000000000000b840       0xbc contiki-srf06-cc26xx.a(rf-core.o)
                0x000000000000b840                rf_core_power_down
 .text.rf_core_primary_mode_register
                0x000000000000b8fc        0xc contiki-srf06-cc26xx.a(rf-core.o)
                0x000000000000b8fc                rf_core_primary_mode_register
 .text.RFCCPE1IntHandler
                0x000000000000b908       0x20 contiki-srf06-cc26xx.a(rf-core.o)
                0x000000000000b908                RFCCPE1IntHandler
 .text.RFCCPE0IntHandler
                0x000000000000b928       0x58 contiki-srf06-cc26xx.a(rf-core.o)
                0x000000000000b928                RFCCPE0IntHandler
 .text.rf_ble_is_active
                0x000000000000b980        0xc contiki-srf06-cc26xx.a(rf-ble.o)
                0x000000000000b980                rf_ble_is_active
 .text.stimer_expired
                0x000000000000b98c       0x20 contiki-srf06-cc26xx.a(stimer.o)
                0x000000000000b98c                stimer_expired
 .text.echo_reply_input
                0x000000000000b9ac       0x94 contiki-srf06-cc26xx.a(uip-icmp6.o)
 .text.echo_request_input
                0x000000000000ba40       0xc8 contiki-srf06-cc26xx.a(uip-icmp6.o)
 .text.uip_icmp6_input
                0x000000000000bb08       0x38 contiki-srf06-cc26xx.a(uip-icmp6.o)
                0x000000000000bb08                uip_icmp6_input
 .text.uip_icmp6_register_input_handler
                0x000000000000bb40        0xc contiki-srf06-cc26xx.a(uip-icmp6.o)
                0x000000000000bb40                uip_icmp6_register_input_handler
 .text.uip_icmp6_error_output
                0x000000000000bb4c      0x148 contiki-srf06-cc26xx.a(uip-icmp6.o)
                0x000000000000bb4c                uip_icmp6_error_output
 .text.uip_icmp6_send
                0x000000000000bc94       0x90 contiki-srf06-cc26xx.a(uip-icmp6.o)
                0x000000000000bc94                uip_icmp6_send
 .text.uip_icmp6_init
                0x000000000000bd24       0x1c contiki-srf06-cc26xx.a(uip-icmp6.o)
                0x000000000000bd24                uip_icmp6_init
 .text.update_nbr
                0x000000000000bd40      0x10c contiki-srf06-cc26xx.a(rpl-nbr-policy.)
 .text.handle_periodic_timer
                0x000000000000be4c       0x14 contiki-srf06-cc26xx.a(rpl-nbr-policy.)
 .text.find_removable_dis
                0x000000000000be60       0x20 contiki-srf06-cc26xx.a(rpl-nbr-policy.)
                0x000000000000be60                find_removable_dis
 .text.find_removable_dio
                0x000000000000be80       0x40 contiki-srf06-cc26xx.a(rpl-nbr-policy.)
                0x000000000000be80                find_removable_dio
 .text.find_removable_dao
                0x000000000000bec0       0x38 contiki-srf06-cc26xx.a(rpl-nbr-policy.)
                0x000000000000bec0                find_removable_dao
 .text.rpl_nbr_policy_find_removable
                0x000000000000bef8       0x28 contiki-srf06-cc26xx.a(rpl-nbr-policy.)
                0x000000000000bef8                rpl_nbr_policy_find_removable
 .text.NOROM_SetupAfterColdResetWakeupFromShutDownCfg1
                0x000000000000bf20       0x70 contiki-srf06-cc26xx.a(setup_rom.o)
                0x000000000000bf20                NOROM_SetupAfterColdResetWakeupFromShutDownCfg1
 .text.NOROM_SetupGetTrimForAnabypassValue1
                0x000000000000bf90       0x5c contiki-srf06-cc26xx.a(setup_rom.o)
                0x000000000000bf90                NOROM_SetupGetTrimForAnabypassValue1
 .text.NOROM_SetupGetTrimForRcOscLfRtuneCtuneTrim
                0x000000000000bfec       0x18 contiki-srf06-cc26xx.a(setup_rom.o)
                0x000000000000bfec                NOROM_SetupGetTrimForRcOscLfRtuneCtuneTrim
 .text.NOROM_SetupGetTrimForAmpcompTh2
                0x000000000000c004       0x10 contiki-srf06-cc26xx.a(setup_rom.o)
                0x000000000000c004                NOROM_SetupGetTrimForAmpcompTh2
 .text.NOROM_SetupGetTrimForAmpcompTh1
                0x000000000000c014       0x14 contiki-srf06-cc26xx.a(setup_rom.o)
                0x000000000000c014                NOROM_SetupGetTrimForAmpcompTh1
 .text.NOROM_SetupGetTrimForAmpcompCtrl
                0x000000000000c028       0x64 contiki-srf06-cc26xx.a(setup_rom.o)
                0x000000000000c028                NOROM_SetupGetTrimForAmpcompCtrl
 .text.NOROM_SetupGetTrimForDblrLoopFilterResetVoltage
                0x000000000000c08c       0x14 contiki-srf06-cc26xx.a(setup_rom.o)
                0x000000000000c08c                NOROM_SetupGetTrimForDblrLoopFilterResetVoltage
 .text.NOROM_SetupGetTrimForAdcShModeEn
                0x000000000000c0a0       0x14 contiki-srf06-cc26xx.a(setup_rom.o)
                0x000000000000c0a0                NOROM_SetupGetTrimForAdcShModeEn
 .text.NOROM_SetupGetTrimForAdcShVbufEn
                0x000000000000c0b4       0x14 contiki-srf06-cc26xx.a(setup_rom.o)
                0x000000000000c0b4                NOROM_SetupGetTrimForAdcShVbufEn
 .text.NOROM_SetupGetTrimForXoscHfCtl
                0x000000000000c0c8       0x28 contiki-srf06-cc26xx.a(setup_rom.o)
                0x000000000000c0c8                NOROM_SetupGetTrimForXoscHfCtl
 .text.NOROM_SetupGetTrimForXoscHfFastStart
                0x000000000000c0f0       0x10 contiki-srf06-cc26xx.a(setup_rom.o)
                0x000000000000c0f0                NOROM_SetupGetTrimForXoscHfFastStart
 .text.NOROM_SetupGetTrimForRadcExtCfg
                0x000000000000c100       0x2c contiki-srf06-cc26xx.a(setup_rom.o)
                0x000000000000c100                NOROM_SetupGetTrimForRadcExtCfg
 .text.NOROM_SetupGetTrimForRcOscLfIBiasTrim
                0x000000000000c12c       0x14 contiki-srf06-cc26xx.a(setup_rom.o)
                0x000000000000c12c                NOROM_SetupGetTrimForRcOscLfIBiasTrim
 .text.NOROM_SetupGetTrimForXoscLfRegulatorAndCmirrwrRatio
                0x000000000000c140       0x14 contiki-srf06-cc26xx.a(setup_rom.o)
                0x000000000000c140                NOROM_SetupGetTrimForXoscLfRegulatorAndCmirrwrRatio
 .text.NOROM_SetupAfterColdResetWakeupFromShutDownCfg2
                0x000000000000c154      0x108 contiki-srf06-cc26xx.a(setup_rom.o)
                0x000000000000c154                NOROM_SetupAfterColdResetWakeupFromShutDownCfg2
 .text.NOROM_SetupSetCacheModeAccordingToCcfgSetting
                0x000000000000c25c       0x64 contiki-srf06-cc26xx.a(setup_rom.o)
                0x000000000000c25c                NOROM_SetupSetCacheModeAccordingToCcfgSetting
 .text.NOROM_SetupSetAonRtcSubSecInc
                0x000000000000c2c0       0x28 contiki-srf06-cc26xx.a(setup_rom.o)
                0x000000000000c2c0                NOROM_SetupSetAonRtcSubSecInc
 .text.NOROM_SetupAfterColdResetWakeupFromShutDownCfg3
                0x000000000000c2e8      0x148 contiki-srf06-cc26xx.a(setup_rom.o)
                0x000000000000c2e8                NOROM_SetupAfterColdResetWakeupFromShutDownCfg3
 .text.NOROM_AONBatMonTemperatureGetDegC
                0x000000000000c430       0x30 contiki-srf06-cc26xx.a(aon_batmon.o)
                0x000000000000c430                NOROM_AONBatMonTemperatureGetDegC
 .text.mac_sequence_is_duplicate
                0x000000000000c460       0x4c contiki-srf06-cc26xx.a(mac-sequence.o)
                0x000000000000c460                mac_sequence_is_duplicate
 .text.mac_sequence_register_seqno
                0x000000000000c4ac       0x60 contiki-srf06-cc26xx.a(mac-sequence.o)
                0x000000000000c4ac                mac_sequence_register_seqno
 .text.exp2     0x000000000000c50c       0x10 /usr/lib/gcc/arm-none-eabi/4.8/../../../arm-none-eabi/lib/armv7-m/libm.a(lib_a-w_exp2.o)
                0x000000000000c50c                exp2
 .text.pow      0x000000000000c51c      0x2f8 /usr/lib/gcc/arm-none-eabi/4.8/../../../arm-none-eabi/lib/armv7-m/libm.a(lib_a-w_pow.o)
                0x000000000000c51c                pow
 .text.__ieee754_sqrt
                0x000000000000c814      0x180 /usr/lib/gcc/arm-none-eabi/4.8/../../../arm-none-eabi/lib/armv7-m/libm.a(lib_a-e_sqrt.o)
                0x000000000000c814                __ieee754_sqrt
 .text.fabs     0x000000000000c994        0x8 /usr/lib/gcc/arm-none-eabi/4.8/../../../arm-none-eabi/lib/armv7-m/libm.a(lib_a-s_fabs.o)
                0x000000000000c994                fabs
 .text.finite   0x000000000000c99c        0xc /usr/lib/gcc/arm-none-eabi/4.8/../../../arm-none-eabi/lib/armv7-m/libm.a(lib_a-s_finite.o)
                0x000000000000c99c                finite
 .text.__fpclassifyd
                0x000000000000c9a8       0x50 /usr/lib/gcc/arm-none-eabi/4.8/../../../arm-none-eabi/lib/armv7-m/libm.a(lib_a-s_fpclassify.o)
                0x000000000000c9a8                __fpclassifyd
 .text.matherr  0x000000000000c9f8        0x4 /usr/lib/gcc/arm-none-eabi/4.8/../../../arm-none-eabi/lib/armv7-m/libm.a(lib_a-s_matherr.o)
                0x000000000000c9f8                matherr
 .text.nan      0x000000000000c9fc        0xc /usr/lib/gcc/arm-none-eabi/4.8/../../../arm-none-eabi/lib/armv7-m/libm.a(lib_a-s_nan.o)
                0x000000000000c9fc                nan
 .text.rint     0x000000000000ca08      0x118 /usr/lib/gcc/arm-none-eabi/4.8/../../../arm-none-eabi/lib/armv7-m/libm.a(lib_a-s_rint.o)
                0x000000000000ca08                rint
 .text.copysign
                0x000000000000cb20       0x14 /usr/lib/gcc/arm-none-eabi/4.8/../../../arm-none-eabi/lib/armv7-m/libm.a(lib_a-s_copysign.o)
                0x000000000000cb20                copysign
 .text          0x000000000000cb34      0x370 /usr/lib/gcc/arm-none-eabi/4.8/armv7-m/libgcc.a(_arm_addsubdf3.o)
                0x000000000000cb34                __aeabi_drsub
                0x000000000000cb3c                __aeabi_dsub
                0x000000000000cb3c                __subdf3
                0x000000000000cb40                __adddf3
                0x000000000000cb40                __aeabi_dadd
                0x000000000000cdb8                __aeabi_ui2d
                0x000000000000cdb8                __floatunsidf
                0x000000000000cdd8                __floatsidf
                0x000000000000cdd8                __aeabi_i2d
                0x000000000000cdfc                __extendsfdf2
                0x000000000000cdfc                __aeabi_f2d
                0x000000000000ce38                __aeabi_ul2d
                0x000000000000ce38                __floatundidf
                0x000000000000ce48                __floatdidf
                0x000000000000ce48                __aeabi_l2d
 .text          0x000000000000cea4      0x424 /usr/lib/gcc/arm-none-eabi/4.8/armv7-m/libgcc.a(_arm_muldivdf3.o)
                0x000000000000cea4                __aeabi_dmul
                0x000000000000cea4                __muldf3
                0x000000000000d0f8                __aeabi_ddiv
                0x000000000000d0f8                __divdf3
 .text          0x000000000000d2c8      0x110 /usr/lib/gcc/arm-none-eabi/4.8/armv7-m/libgcc.a(_arm_cmpdf2.o)
                0x000000000000d2c8                __gtdf2
                0x000000000000d2c8                __gedf2
                0x000000000000d2d0                __ltdf2
                0x000000000000d2d0                __ledf2
                0x000000000000d2d8                __cmpdf2
                0x000000000000d2d8                __eqdf2
                0x000000000000d2d8                __nedf2
                0x000000000000d354                __aeabi_cdrcmple
                0x000000000000d364                __aeabi_cdcmple
                0x000000000000d364                __aeabi_cdcmpeq
                0x000000000000d374                __aeabi_dcmpeq
                0x000000000000d388                __aeabi_dcmplt
                0x000000000000d39c                __aeabi_dcmple
                0x000000000000d3b0                __aeabi_dcmpge
                0x000000000000d3c4                __aeabi_dcmpgt
 .text          0x000000000000d3d8       0xa0 /usr/lib/gcc/arm-none-eabi/4.8/armv7-m/libgcc.a(_arm_truncdfsf2.o)
                0x000000000000d3d8                __aeabi_d2f
                0x000000000000d3d8                __truncdfsf2
 .text          0x000000000000d478      0x21c /usr/lib/gcc/arm-none-eabi/4.8/armv7-m/libgcc.a(_arm_addsubsf3.o)
                0x000000000000d478                __aeabi_frsub
                0x000000000000d480                __subsf3
                0x000000000000d480                __aeabi_fsub
                0x000000000000d484                __aeabi_fadd
                0x000000000000d484                __addsf3
                0x000000000000d5e4                __aeabi_ui2f
                0x000000000000d5e4                __floatunsisf
                0x000000000000d5ec                __aeabi_i2f
                0x000000000000d5ec                __floatsisf
                0x000000000000d608                __floatundisf
                0x000000000000d608                __aeabi_ul2f
                0x000000000000d618                __floatdisf
                0x000000000000d618                __aeabi_l2f
 .text          0x000000000000d694      0x2a0 /usr/lib/gcc/arm-none-eabi/4.8/armv7-m/libgcc.a(_arm_muldivsf3.o)
                0x000000000000d694                __mulsf3
                0x000000000000d694                __aeabi_fmul
                0x000000000000d7fc                __divsf3
                0x000000000000d7fc                __aeabi_fdiv
 .text          0x000000000000d934       0x4c /usr/lib/gcc/arm-none-eabi/4.8/armv7-m/libgcc.a(_arm_fixsfsi.o)
                0x000000000000d934                __fixsfsi
                0x000000000000d934                __aeabi_f2iz
 .text          0x000000000000d980       0x2c /usr/lib/gcc/arm-none-eabi/4.8/armv7-m/libgcc.a(_aeabi_uldivmod.o)
                0x000000000000d980                __aeabi_uldivmod
 .text          0x000000000000d9ac       0x60 /usr/lib/gcc/arm-none-eabi/4.8/armv7-m/libgcc.a(bpabi.o)
                0x000000000000d9ac                __gnu_ldivmod_helper
                0x000000000000d9dc                __gnu_uldivmod_helper
 .text          0x000000000000da0c        0x4 /usr/lib/gcc/arm-none-eabi/4.8/armv7-m/libgcc.a(_dvmd_tls.o)
                0x000000000000da0c                __aeabi_ldiv0
                0x000000000000da0c                __aeabi_idiv0
 .text          0x000000000000da10      0x2a0 /usr/lib/gcc/arm-none-eabi/4.8/armv7-m/libgcc.a(_divdi3.o)
                0x000000000000da10                __divdi3
 .text          0x000000000000dcb0      0x290 /usr/lib/gcc/arm-none-eabi/4.8/armv7-m/libgcc.a(_udivdi3.o)
                0x000000000000dcb0                __udivdi3
 .text.__errno  0x000000000000df40        0xc /usr/lib/gcc/arm-none-eabi/4.8/../../../arm-none-eabi/lib/armv7-m/libc.a(lib_a-errno.o)
                0x000000000000df40                __errno
 .text.memcmp   0x000000000000df4c       0x68 /usr/lib/gcc/arm-none-eabi/4.8/../../../arm-none-eabi/lib/armv7-m/libc.a(lib_a-memcmp.o)
                0x000000000000df4c                memcmp
 .text          0x000000000000dfb4       0xec /usr/lib/gcc/arm-none-eabi/4.8/../../../arm-none-eabi/lib/armv7-m/libc.a(lib_a-memcpy.o)
                0x000000000000dfb4                memcpy
 .text.memmove  0x000000000000e0a0       0xcc /usr/lib/gcc/arm-none-eabi/4.8/../../../arm-none-eabi/lib/armv7-m/libc.a(lib_a-memmove.o)
                0x000000000000e0a0                memmove
 .text.memset   0x000000000000e16c       0x94 /usr/lib/gcc/arm-none-eabi/4.8/../../../arm-none-eabi/lib/armv7-m/libc.a(lib_a-memset.o)
                0x000000000000e16c                memset
 .text.strlen   0x000000000000e200       0x5c /usr/lib/gcc/arm-none-eabi/4.8/../../../arm-none-eabi/lib/armv7-m/libc.a(lib_a-strlen.o)
                0x000000000000e200                strlen
 .text.NmiSRHandler
                0x000000000000e25c        0x2 obj_srf06-cc26xx/startup_gcc.o
                0x000000000000e25c                NmiSR
 .text.IntDefaultHandler
                0x000000000000e25e        0x2 obj_srf06-cc26xx/startup_gcc.o
                0x000000000000e25e                SSI0IntHandler
                0x000000000000e25e                SWEvent0IntHandler
                0x000000000000e25e                uDMAIntHandler
                0x000000000000e25e                WatchdogIntHandler
                0x000000000000e25e                RFCHardwareIntHandler
                0x000000000000e25e                Timer1BIntHandler
                0x000000000000e25e                I2SIntHandler
                0x000000000000e25e                Timer2BIntHandler
                0x000000000000e25e                Timer2AIntHandler
                0x000000000000e25e                Timer1AIntHandler
                0x000000000000e25e                AONIntHandler
                0x000000000000e25e                AUXSWEvent0IntHandler
                0x000000000000e25e                AUXADCIntHandler
                0x000000000000e25e                PendSVIntHandler
                0x000000000000e25e                AUXSWEvent1IntHandler
                0x000000000000e25e                SVCallIntHandler
                0x000000000000e25e                MPUFaultIntHandler
                0x000000000000e25e                SysTickIntHandler
                0x000000000000e25e                BusFaultIntHandler
                0x000000000000e25e                AONProgIntHandler
                0x000000000000e25e                AUXCompAIntHandler
                0x000000000000e25e                SSI1IntHandler
                0x000000000000e25e                FlashIntHandler
                0x000000000000e25e                uDMAErrIntHandler
                0x000000000000e25e                UsageFaultIntHandler
                0x000000000000e25e                RFCCmdAckIntHandler
                0x000000000000e25e                CryptoIntHandler
                0x000000000000e25e                Timer0AIntHandler
                0x000000000000e25e                I2CIntHandler
                0x000000000000e25e                DebugMonIntHandler
                0x000000000000e25e                Timer0BIntHandler
                0x000000000000e25e                AUXCombEventIntHandler
                0x000000000000e25e                Timer3AIntHandler
                0x000000000000e25e                DynProgIntHandler
                0x000000000000e25e                Timer3BIntHandler
 .text.fade     0x000000000000e260       0x54 contiki-srf06-cc26xx.a(contiki-main.o)
 .text.enable_sensor
                0x000000000000e2b4       0x2a contiki-srf06-cc26xx.a(bmp-280-sensor.)
 .text.status_right
                0x000000000000e2de       0x10 contiki-srf06-cc26xx.a(button-sensor.o)
 .text.config_left
                0x000000000000e2ee        0xc contiki-srf06-cc26xx.a(button-sensor.o)
 .text.config_right
                0x000000000000e2fa        0xc contiki-srf06-cc26xx.a(button-sensor.o)
 .text.status_left
                0x000000000000e306       0x10 contiki-srf06-cc26xx.a(button-sensor.o)
 .text.lpm_wakeup_handler
                0x000000000000e316        0x4 contiki-srf06-cc26xx.a(board.o)
 .text.clock_update
                0x000000000000e31a       0x16 contiki-srf06-cc26xx.a(clock.o)
                0x000000000000e31a                clock_update
 .text.rtimer_arch_init
                0x000000000000e330        0x2 contiki-srf06-cc26xx.a(rtimer-arch.o)
                0x000000000000e330                rtimer_arch_init
 .text.rtimer_arch_schedule
                0x000000000000e332        0x8 contiki-srf06-cc26xx.a(rtimer-arch.o)
                0x000000000000e332                rtimer_arch_schedule
 .text.rtimer_arch_now
                0x000000000000e33a        0x4 contiki-srf06-cc26xx.a(rtimer-arch.o)
                0x000000000000e33a                rtimer_arch_now
 .text.putchar  0x000000000000e33e        0xe contiki-srf06-cc26xx.a(putchar.o)
                0x000000000000e33e                putchar
 .text.puts     0x000000000000e34c       0x2c contiki-srf06-cc26xx.a(putchar.o)
                0x000000000000e34c                puts
 .text.dbg_send_bytes
                0x000000000000e378       0x2a contiki-srf06-cc26xx.a(putchar.o)
                0x000000000000e378                dbg_send_bytes
 .text.slip_arch_writeb
                0x000000000000e3a2        0x4 contiki-srf06-cc26xx.a(slip-arch.o)
                0x000000000000e3a2                slip_arch_writeb
 .text.oscillators_select_lf_rcosc
                0x000000000000e3a6       0x3a contiki-srf06-cc26xx.a(oscillators.o)
                0x000000000000e3a6                oscillators_select_lf_rcosc
 .text.oscillators_request_hf_xosc
                0x000000000000e3e0       0x2e contiki-srf06-cc26xx.a(oscillators.o)
                0x000000000000e3e0                oscillators_request_hf_xosc
 .text.request  0x000000000000e40e       0x10 contiki-srf06-cc26xx.a(ieee-mode.o)
 .text.soft_on  0x000000000000e41e       0x16 contiki-srf06-cc26xx.a(ieee-mode.o)
 .text.transmitting
                0x000000000000e434       0x3e contiki-srf06-cc26xx.a(ieee-mode.o)
 .text.get_cca_info.part.3
                0x000000000000e472       0x30 contiki-srf06-cc26xx.a(ieee-mode.o)
 .text.send     0x000000000000e4a2       0x12 contiki-srf06-cc26xx.a(ieee-mode.o)
 .text.channel_clear
                0x000000000000e4b4       0x54 contiki-srf06-cc26xx.a(ieee-mode.o)
 .text.receiving_packet
                0x000000000000e508       0x2e contiki-srf06-cc26xx.a(ieee-mode.o)
 .text.random_rand
                0x000000000000e536        0xa contiki-srf06-cc26xx.a(random.o)
                0x000000000000e536                random_rand
 .text.random_init
                0x000000000000e540        0x4 contiki-srf06-cc26xx.a(random.o)
                0x000000000000e540                random_init
 .text.write_str
                0x000000000000e544       0x10 contiki-srf06-cc26xx.a(dbg-printf.o)
 .text.autostart_start
                0x000000000000e554       0x14 contiki-srf06-cc26xx.a(autostart.o)
                0x000000000000e554                autostart_start
 .text.energest_init
                0x000000000000e568        0x2 contiki-srf06-cc26xx.a(energest.o)
                0x000000000000e568                energest_init
 .text.etimer_set
                0x000000000000e56a       0x12 contiki-srf06-cc26xx.a(etimer.o)
                0x000000000000e56a                etimer_set
 .text.etimer_reset
                0x000000000000e57c       0x12 contiki-srf06-cc26xx.a(etimer.o)
                0x000000000000e57c                etimer_reset
 .text.etimer_restart
                0x000000000000e58e       0x12 contiki-srf06-cc26xx.a(etimer.o)
                0x000000000000e58e                etimer_restart
 .text.etimer_expired
                0x000000000000e5a0        0xc contiki-srf06-cc26xx.a(etimer.o)
                0x000000000000e5a0                etimer_expired
 .text.etimer_expiration_time
                0x000000000000e5ac        0x6 contiki-srf06-cc26xx.a(etimer.o)
                0x000000000000e5ac                etimer_expiration_time
 .text.call_process
                0x000000000000e5b2        0xc contiki-srf06-cc26xx.a(process.o)
 .text.rtimer_init
                0x000000000000e5be        0x4 contiki-srf06-cc26xx.a(rtimer.o)
                0x000000000000e5be                rtimer_init
 .text.timer_set
                0x000000000000e5c2        0xe contiki-srf06-cc26xx.a(timer.o)
                0x000000000000e5c2                timer_set
 .text.timer_reset
                0x000000000000e5d0        0xa contiki-srf06-cc26xx.a(timer.o)
                0x000000000000e5d0                timer_reset
 .text.timer_restart
                0x000000000000e5da        0xc contiki-srf06-cc26xx.a(timer.o)
                0x000000000000e5da                timer_restart
 .text.timer_expired
                0x000000000000e5e6       0x1c contiki-srf06-cc26xx.a(timer.o)
                0x000000000000e5e6                timer_expired
 .text.list_init
                0x000000000000e602        0x6 contiki-srf06-cc26xx.a(list.o)
                0x000000000000e602                list_init
 .text.list_head
                0x000000000000e608        0x4 contiki-srf06-cc26xx.a(list.o)
                0x000000000000e608                list_head
 .text.list_tail
                0x000000000000e60c        0xe contiki-srf06-cc26xx.a(list.o)
                0x000000000000e60c                list_tail
 .text.list_remove
                0x000000000000e61a       0x28 contiki-srf06-cc26xx.a(list.o)
                0x000000000000e61a                list_remove
 .text.list_add
                0x000000000000e642       0x1e contiki-srf06-cc26xx.a(list.o)
                0x000000000000e642                list_add
 .text.list_push
                0x000000000000e660       0x12 contiki-srf06-cc26xx.a(list.o)
                0x000000000000e660                list_push
 .text.list_length
                0x000000000000e672        0xe contiki-srf06-cc26xx.a(list.o)
                0x000000000000e672                list_length
 .text.list_item_next
                0x000000000000e680        0x6 contiki-srf06-cc26xx.a(list.o)
                0x000000000000e680                list_item_next
 .text.ringbuf_init
                0x000000000000e686        0xe contiki-srf06-cc26xx.a(ringbuf.o)
                0x000000000000e686                ringbuf_init
 .text.ringbuf_get
                0x000000000000e694       0x20 contiki-srf06-cc26xx.a(ringbuf.o)
                0x000000000000e694                ringbuf_get
 .text.uip_ds6_list_loop
                0x000000000000e6b4       0x4a contiki-srf06-cc26xx.a(uip-ds6.o)
                0x000000000000e6b4                uip_ds6_list_loop
 .text.uip_ds6_maddr_rm
                0x000000000000e6fe        0x8 contiki-srf06-cc26xx.a(uip-ds6.o)
                0x000000000000e6fe                uip_ds6_maddr_rm
 .text.uip_ds6_set_addr_iid
                0x000000000000e706       0x12 contiki-srf06-cc26xx.a(uip-ds6.o)
                0x000000000000e706                uip_ds6_set_addr_iid
 .text.get_match_length
                0x000000000000e718       0x36 contiki-srf06-cc26xx.a(uip-ds6.o)
                0x000000000000e718                get_match_length
 .text.uip_ds6_route_next
                0x000000000000e74e        0x8 contiki-srf06-cc26xx.a(uip-ds6-route.o)
                0x000000000000e74e                uip_ds6_route_next
 .text.rm_routelist_callback
                0x000000000000e756        0x4 contiki-srf06-cc26xx.a(uip-ds6-route.o)
 .text.chksum   0x000000000000e75a       0x38 contiki-srf06-cc26xx.a(uip6.o)
 .text.uip_icmp6chksum
                0x000000000000e792        0x6 contiki-srf06-cc26xx.a(uip6.o)
                0x000000000000e792                uip_icmp6chksum
 .text.uip_tcpchksum
                0x000000000000e798        0x6 contiki-srf06-cc26xx.a(uip6.o)
                0x000000000000e798                uip_tcpchksum
 .text.uip_udpchksum
                0x000000000000e79e        0x6 contiki-srf06-cc26xx.a(uip6.o)
                0x000000000000e79e                uip_udpchksum
 .text.uip_htonl
                0x000000000000e7a4       0x14 contiki-srf06-cc26xx.a(uip6.o)
                0x000000000000e7a4                uip_htonl
 .text.uip_ds6_nbr_ipaddr_from_lladdr
                0x000000000000e7b8        0x4 contiki-srf06-cc26xx.a(uip-ds6-nbr.o)
                0x000000000000e7b8                uip_ds6_nbr_ipaddr_from_lladdr
 .text.uip_ds6_nbr_lladdr_from_ipaddr
                0x000000000000e7bc       0x12 contiki-srf06-cc26xx.a(uip-ds6-nbr.o)
                0x000000000000e7bc                uip_ds6_nbr_lladdr_from_ipaddr
 .text.lollipop_greater_than
                0x000000000000e7ce       0x34 contiki-srf06-cc26xx.a(rpl-dag.o)
 .text.check_prefix
                0x000000000000e802       0x58 contiki-srf06-cc26xx.a(rpl-dag.o)
 .text.rpl_rank_via_parent
                0x000000000000e85a       0x1e contiki-srf06-cc26xx.a(rpl-dag.o)
                0x000000000000e85a                rpl_rank_via_parent
 .text.rpl_get_parent_ipaddr
                0x000000000000e878        0xe contiki-srf06-cc26xx.a(rpl-dag.o)
                0x000000000000e878                rpl_get_parent_ipaddr
 .text.rpl_get_parent_link_stats
                0x000000000000e886        0xe contiki-srf06-cc26xx.a(rpl-dag.o)
                0x000000000000e886                rpl_get_parent_link_stats
 .text.rpl_parent_is_fresh
                0x000000000000e894        0xe contiki-srf06-cc26xx.a(rpl-dag.o)
                0x000000000000e894                rpl_parent_is_fresh
 .text.rpl_parent_is_reachable
                0x000000000000e8a2       0x36 contiki-srf06-cc26xx.a(rpl-dag.o)
                0x000000000000e8a2                rpl_parent_is_reachable
 .text.rpl_set_prefix
                0x000000000000e8d8       0x6e contiki-srf06-cc26xx.a(rpl-dag.o)
                0x000000000000e8d8                rpl_set_prefix
 .text.rpl_set_default_route
                0x000000000000e946       0x30 contiki-srf06-cc26xx.a(rpl-dag.o)
                0x000000000000e946                rpl_set_default_route
 .text.rpl_find_parent
                0x000000000000e976       0x16 contiki-srf06-cc26xx.a(rpl-dag.o)
                0x000000000000e976                rpl_find_parent
 .text.rpl_find_parent_any_dag
                0x000000000000e98c       0x24 contiki-srf06-cc26xx.a(rpl-dag.o)
                0x000000000000e98c                rpl_find_parent_any_dag
 .text.rpl_select_parent
                0x000000000000e9b0       0x4a contiki-srf06-cc26xx.a(rpl-dag.o)
                0x000000000000e9b0                rpl_select_parent
 .text.rpl_select_dag
                0x000000000000e9fa      0x15c contiki-srf06-cc26xx.a(rpl-dag.o)
                0x000000000000e9fa                rpl_select_dag
 .text.rpl_nullify_parent
                0x000000000000eb56       0x54 contiki-srf06-cc26xx.a(rpl-dag.o)
                0x000000000000eb56                rpl_nullify_parent
 .text.nbr_callback
                0x000000000000ebaa        0x4 contiki-srf06-cc26xx.a(rpl-dag.o)
 .text.rpl_free_dag
                0x000000000000ebae       0x3a contiki-srf06-cc26xx.a(rpl-dag.o)
                0x000000000000ebae                rpl_free_dag
 .text.rpl_move_parent
                0x000000000000ebe8       0x54 contiki-srf06-cc26xx.a(rpl-dag.o)
                0x000000000000ebe8                rpl_move_parent
 .text.rpl_repair_root
                0x000000000000ec3c       0x48 contiki-srf06-cc26xx.a(rpl-dag.o)
                0x000000000000ec3c                rpl_repair_root
 .text.rpl_alloc_dag
                0x000000000000ec84       0x48 contiki-srf06-cc26xx.a(rpl-dag.o)
                0x000000000000ec84                rpl_alloc_dag
 .text.rpl_process_parent_event
                0x000000000000eccc       0x96 contiki-srf06-cc26xx.a(rpl-dag.o)
                0x000000000000eccc                rpl_process_parent_event
 .text.rpl_add_dag
                0x000000000000ed62      0x10a contiki-srf06-cc26xx.a(rpl-dag.o)
                0x000000000000ed62                rpl_add_dag
 .text.rpl_process_dio
                0x000000000000ee6c      0x2e8 contiki-srf06-cc26xx.a(rpl-dag.o)
                0x000000000000ee6c                rpl_process_dio
 .text.handle_unicast_dio_timer
                0x000000000000f154       0x1c contiki-srf06-cc26xx.a(rpl-timers.o)
 .text.rpl_reset_dio_timer
                0x000000000000f170       0x1c contiki-srf06-cc26xx.a(rpl-timers.o)
                0x000000000000f170                rpl_reset_dio_timer
 .text.rpl_schedule_dao
                0x000000000000f18c        0x8 contiki-srf06-cc26xx.a(rpl-timers.o)
                0x000000000000f18c                rpl_schedule_dao
 .text.get_probing_delay
                0x000000000000f194       0x3a contiki-srf06-cc26xx.a(rpl-timers.o)
                0x000000000000f194                get_probing_delay
 .text.handle_probing_timer
                0x000000000000f1ce       0x32 contiki-srf06-cc26xx.a(rpl-timers.o)
 .text.rpl_remove_routes
                0x000000000000f200       0x1e contiki-srf06-cc26xx.a(rpl.o)
                0x000000000000f200                rpl_remove_routes
 .text.rpl_remove_routes_by_nexthop
                0x000000000000f21e       0x30 contiki-srf06-cc26xx.a(rpl.o)
                0x000000000000f21e                rpl_remove_routes_by_nexthop
 .text.reset    0x000000000000f24e        0x2 contiki-srf06-cc26xx.a(rpl-mrhof.o)
 .text.update_metric_container
                0x000000000000f250        0x6 contiki-srf06-cc26xx.a(rpl-mrhof.o)
 .text.parent_link_metric
                0x000000000000f256       0x12 contiki-srf06-cc26xx.a(rpl-mrhof.o)
 .text.parent_has_usable_link
                0x000000000000f268       0x12 contiki-srf06-cc26xx.a(rpl-mrhof.o)
 .text.best_dag
                0x000000000000f27a       0x2a contiki-srf06-cc26xx.a(rpl-mrhof.o)
 .text.parent_path_cost
                0x000000000000f2a4       0x30 contiki-srf06-cc26xx.a(rpl-mrhof.o)
 .text.parent_is_acceptable
                0x000000000000f2d4       0x26 contiki-srf06-cc26xx.a(rpl-mrhof.o)
 .text.rank_via_parent
                0x000000000000f2fa       0x34 contiki-srf06-cc26xx.a(rpl-mrhof.o)
 .text.best_parent
                0x000000000000f32e       0x66 contiki-srf06-cc26xx.a(rpl-mrhof.o)
 .text.get32    0x000000000000f394       0x18 contiki-srf06-cc26xx.a(rpl-icmp6.o)
 .text.set32    0x000000000000f3ac       0x12 contiki-srf06-cc26xx.a(rpl-icmp6.o)
 .text.get16    0x000000000000f3be        0xc contiki-srf06-cc26xx.a(rpl-icmp6.o)
 .text.set16    0x000000000000f3ca        0xa contiki-srf06-cc26xx.a(rpl-icmp6.o)
 .text.rpl_icmp6_update_nbr_table
                0x000000000000f3d4       0x2e contiki-srf06-cc26xx.a(rpl-icmp6.o)
                0x000000000000f3d4                rpl_icmp6_update_nbr_table
 .text.NOROM_DDI32RegWrite
                0x000000000000f402        0x8 contiki-srf06-cc26xx.a(ddi.o)
                0x000000000000f402                NOROM_DDI32RegWrite
 .text.NOROM_DDI16BitfieldWrite
                0x000000000000f40a       0x2c contiki-srf06-cc26xx.a(ddi.o)
                0x000000000000f40a                NOROM_DDI16BitfieldWrite
 .text.NOROM_CPUcpsid
                0x000000000000f436        0x8 contiki-srf06-cc26xx.a(cpu.o)
                0x000000000000f436                NOROM_CPUcpsid
 .text.NOROM_CPUcpsie
                0x000000000000f43e        0x8 contiki-srf06-cc26xx.a(cpu.o)
                0x000000000000f43e                NOROM_CPUcpsie
 .text.NOROM_CPUdelay
                0x000000000000f446        0x8 contiki-srf06-cc26xx.a(cpu.o)
                0x000000000000f446                NOROM_CPUdelay
 .text.NOROM_ThisCodeIsBuiltForCC26xxHwRev22AndLater_HaltIfViolated
                0x000000000000f44e       0x14 contiki-srf06-cc26xx.a(chipinfo.o)
                0x000000000000f44e                NOROM_ThisCodeIsBuiltForCC26xxHwRev22AndLater_HaltIfViolated
 .text.queuebuf_update_attr_from_packetbuf
                0x000000000000f462        0xc contiki-srf06-cc26xx.a(queuebuf.o)
                0x000000000000f462                queuebuf_update_attr_from_packetbuf
 .text.queuebuf_update_from_packetbuf
                0x000000000000f46e       0x1c contiki-srf06-cc26xx.a(queuebuf.o)
                0x000000000000f46e                queuebuf_update_from_packetbuf
 .text.queuebuf_attr
                0x000000000000f48a        0xc contiki-srf06-cc26xx.a(queuebuf.o)
                0x000000000000f48a                queuebuf_attr
 .text.nbr_set_bit
                0x000000000000f496       0x34 contiki-srf06-cc26xx.a(nbr-table.o)
 .text.item_from_key
                0x000000000000f4ca       0x22 contiki-srf06-cc26xx.a(nbr-table.o)
 .text.nbr_table_next
                0x000000000000f4ec       0x2e contiki-srf06-cc26xx.a(nbr-table.o)
                0x000000000000f4ec                nbr_table_next
 .text.nbr_table_get_from_lladdr
                0x000000000000f51a       0x32 contiki-srf06-cc26xx.a(nbr-table.o)
                0x000000000000f51a                nbr_table_get_from_lladdr
 .text.nbr_table_get_lladdr
                0x000000000000f54c        0xc contiki-srf06-cc26xx.a(nbr-table.o)
                0x000000000000f54c                nbr_table_get_lladdr
 .text.linkaddr_copy
                0x000000000000f558        0xa contiki-srf06-cc26xx.a(linkaddr.o)
                0x000000000000f558                linkaddr_copy
 .text.linkaddr_cmp
                0x000000000000f562       0x12 contiki-srf06-cc26xx.a(linkaddr.o)
                0x000000000000f562                linkaddr_cmp
 .text.link_stats_is_fresh
                0x000000000000f574       0x24 contiki-srf06-cc26xx.a(link-stats.o)
                0x000000000000f574                link_stats_is_fresh
 .text.parse    0x000000000000f598       0x94 contiki-srf06-cc26xx.a(framer-802154.o)
 .text.create   0x000000000000f62c        0x6 contiki-srf06-cc26xx.a(framer-802154.o)
 .text.hdr_length
                0x000000000000f632        0x6 contiki-srf06-cc26xx.a(framer-802154.o)
 .text.packet_sent
                0x000000000000f638       0xca contiki-srf06-cc26xx.a(csma.o)
 .text.frame802154_has_panid
                0x000000000000f702       0xae contiki-srf06-cc26xx.a(frame802154.o)
                0x000000000000f702                frame802154_has_panid
 .text.field_len
                0x000000000000f7b0       0x84 contiki-srf06-cc26xx.a(frame802154.o)
 .text.frame802154_is_broadcast_addr
                0x000000000000f834       0x20 contiki-srf06-cc26xx.a(frame802154.o)
                0x000000000000f834                frame802154_is_broadcast_addr
 .text.frame802154_hdrlen
                0x000000000000f854       0x32 contiki-srf06-cc26xx.a(frame802154.o)
                0x000000000000f854                frame802154_hdrlen
 .text.frame802154_create
                0x000000000000f886       0xe4 contiki-srf06-cc26xx.a(frame802154.o)
                0x000000000000f886                frame802154_create
 .text.duty_cycle
                0x000000000000f96a        0x4 contiki-srf06-cc26xx.a(contikimac.o)
 .text.qsend_packet
                0x000000000000f96e       0x22 contiki-srf06-cc26xx.a(contikimac.o)
 .text.init     0x000000000000f990        0x2 contiki-srf06-cc26xx.a(nullsec.o)
 .text.sensor_common_read_reg
                0x000000000000f992       0x1a contiki-srf06-cc26xx.a(sensor-common.o)
                0x000000000000f992                sensor_common_read_reg
 .text.sensor_common_set_error_data
                0x000000000000f9ac        0xe contiki-srf06-cc26xx.a(sensor-common.o)
                0x000000000000f9ac                sensor_common_set_error_data
 .text.ext_flash_init
                0x000000000000f9ba        0xe contiki-srf06-cc26xx.a(ext-flash.o)
                0x000000000000f9ba                ext_flash_init
 .text.IntMasterEnable
                0x000000000000f9c8        0xe contiki-srf06-cc26xx.a(rf-core.o)
 .text.rf_core_init_radio_op
                0x000000000000f9d6       0x1e contiki-srf06-cc26xx.a(rf-core.o)
                0x000000000000f9d6                rf_core_init_radio_op
 .text.rf_core_boot
                0x000000000000f9f4       0x1c contiki-srf06-cc26xx.a(rf-core.o)
                0x000000000000f9f4                rf_core_boot
 .text.rf_core_restart_rat
                0x000000000000fa10       0x1a contiki-srf06-cc26xx.a(rf-core.o)
                0x000000000000fa10                rf_core_restart_rat
 .text.stimer_set
                0x000000000000fa2a        0xe contiki-srf06-cc26xx.a(stimer.o)
                0x000000000000fa2a                stimer_set
 .text.memb_init
                0x000000000000fa38       0x20 contiki-srf06-cc26xx.a(memb.o)
                0x000000000000fa38                memb_init
 .text.memb_alloc
                0x000000000000fa58       0x28 contiki-srf06-cc26xx.a(memb.o)
                0x000000000000fa58                memb_alloc
 .text.memb_free
                0x000000000000fa80       0x2c contiki-srf06-cc26xx.a(memb.o)
                0x000000000000fa80                memb_free
 .text.memb_inmemb
                0x000000000000faac       0x1c contiki-srf06-cc26xx.a(memb.o)
                0x000000000000faac                memb_inmemb
 .text.memb_numfree
                0x000000000000fac8       0x1c contiki-srf06-cc26xx.a(memb.o)
                0x000000000000fac8                memb_numfree
 *(SORT(.rodata*))
 *fill*         0x000000000000fae4        0x4 00000000
 .rodata.dp_h   0x000000000000fae8       0x10 /usr/lib/gcc/arm-none-eabi/4.8/../../../arm-none-eabi/lib/armv7-m/libm.a(lib_a-e_pow.o)
 .rodata.dp_l   0x000000000000faf8       0x10 /usr/lib/gcc/arm-none-eabi/4.8/../../../arm-none-eabi/lib/armv7-m/libm.a(lib_a-e_pow.o)
 .rodata.bp     0x000000000000fb08       0x10 /usr/lib/gcc/arm-none-eabi/4.8/../../../arm-none-eabi/lib/armv7-m/libm.a(lib_a-e_pow.o)
 .rodata.TWO52  0x000000000000fb18       0x10 /usr/lib/gcc/arm-none-eabi/4.8/../../../arm-none-eabi/lib/armv7-m/libm.a(lib_a-s_rint.o)
 .rodata.autostart_processes
                0x000000000000fb28        0x8 border-router.co
                0x000000000000fb28                autostart_processes
 .rodata.rpl_interface
                0x000000000000fb30        0x8 obj_srf06-cc26xx/slip-bridge.o
                0x000000000000fb30                rpl_interface
 .rodata.bmp_280_sensor
                0x000000000000fb38       0x10 contiki-srf06-cc26xx.a(bmp-280-sensor.)
                0x000000000000fb38                bmp_280_sensor
 .rodata.tmp_007_sensor
                0x000000000000fb48       0x10 contiki-srf06-cc26xx.a(tmp-007-sensor.)
                0x000000000000fb48                tmp_007_sensor
 .rodata.opt_3001_sensor
                0x000000000000fb58       0x10 contiki-srf06-cc26xx.a(opt-3001-sensor)
                0x000000000000fb58                opt_3001_sensor
 .rodata.hdc_1000_sensor
                0x000000000000fb68       0x10 contiki-srf06-cc26xx.a(hdc-1000-sensor)
                0x000000000000fb68                hdc_1000_sensor
 .rodata.mpu_9250_sensor
                0x000000000000fb78       0x10 contiki-srf06-cc26xx.a(mpu-9250-sensor)
                0x000000000000fb78                mpu_9250_sensor
 .rodata.button_left_sensor
                0x000000000000fb88       0x10 contiki-srf06-cc26xx.a(button-sensor.o)
                0x000000000000fb88                button_left_sensor
 .rodata.button_right_sensor
                0x000000000000fb98       0x10 contiki-srf06-cc26xx.a(button-sensor.o)
                0x000000000000fb98                button_right_sensor
 .rodata.reed_relay_sensor
                0x000000000000fba8       0x10 contiki-srf06-cc26xx.a(reed-relay.o)
                0x000000000000fba8                reed_relay_sensor
 .rodata.output_power
                0x000000000000fbb8       0x68 contiki-srf06-cc26xx.a(ieee-mode.o)
 .rodata.mode_ieee
                0x000000000000fc20        0x8 contiki-srf06-cc26xx.a(ieee-mode.o)
 .rodata.ieee_mode_driver
                0x000000000000fc28       0x38 contiki-srf06-cc26xx.a(ieee-mode.o)
                0x000000000000fc28                ieee_mode_driver
 .rodata.sicslowpan_driver
                0x000000000000fc60        0xc contiki-srf06-cc26xx.a(sicslowpan.o)
                0x000000000000fc60                sicslowpan_driver
 .rodata.framer_802154
                0x000000000000fc6c        0xc contiki-srf06-cc26xx.a(framer-802154.o)
                0x000000000000fc6c                framer_802154
 .rodata.csma_driver
                0x000000000000fc78       0x1c contiki-srf06-cc26xx.a(csma.o)
                0x000000000000fc78                csma_driver
 .rodata.contikimac_driver
                0x000000000000fc94       0x20 contiki-srf06-cc26xx.a(contikimac.o)
                0x000000000000fc94                contikimac_driver
 .rodata.nullsec_driver
                0x000000000000fcb4       0x10 contiki-srf06-cc26xx.a(nullsec.o)
                0x000000000000fcb4                nullsec_driver
 .rodata.str1.4
                0x000000000000fcc4        0x4 /usr/lib/gcc/arm-none-eabi/4.8/../../../arm-none-eabi/lib/armv7-m/libm.a(lib_a-w_pow.o)
 .rodata.str1.4
                0x000000000000fcc8        0x1 /usr/lib/gcc/arm-none-eabi/4.8/../../../arm-none-eabi/lib/armv7-m/libm.a(lib_a-e_pow.o)
                                          0x4 (size before relaxing)
 *fill*         0x000000000000fcc9        0x3 00000000
 .rodata.str1.4
                0x000000000000fccc        0x4 /usr/lib/gcc/arm-none-eabi/4.8/../../../arm-none-eabi/lib/armv7-m/libc.a(lib_a-impure.o)
 .rodata.str1.1
                0x000000000000fcd0       0x2d border-router.co
 .rodata.str1.1
                0x000000000000fcfd       0xa1 obj_srf06-cc26xx/slip-bridge.o
 .rodata.str1.1
                0x000000000000fd9e       0xe2 contiki-srf06-cc26xx.a(contiki-main.o)
 .rodata.str1.1
                0x000000000000fe80        0x8 contiki-srf06-cc26xx.a(sensors.o)
 .rodata.str1.1
                0x000000000000fe88        0x7 contiki-srf06-cc26xx.a(bmp-280-sensor.)
 .rodata.str1.1
                0x000000000000fe8f        0x7 contiki-srf06-cc26xx.a(tmp-007-sensor.)
 .rodata.str1.1
                0x000000000000fe96        0x8 contiki-srf06-cc26xx.a(opt-3001-sensor)
 .rodata.str1.1
                0x000000000000fe9e        0x8 contiki-srf06-cc26xx.a(hdc-1000-sensor)
 .rodata.str1.1
                0x000000000000fea6        0x8 contiki-srf06-cc26xx.a(mpu-9250-sensor)
 .rodata.str1.1
                0x000000000000feae        0x7 contiki-srf06-cc26xx.a(button-sensor.o)
 .rodata.str1.1
                0x000000000000feb5        0x5 contiki-srf06-cc26xx.a(reed-relay.o)
 .rodata.str1.1
                0x000000000000feba        0xc contiki-srf06-cc26xx.a(slip.o)
 .rodata.str1.1
                0x000000000000fec6       0x1b contiki-srf06-cc26xx.a(soc-trng.o)
 .rodata.buffer.4005
                0x000000000000fee1       0x10 contiki-srf06-cc26xx.a(strformat.o)
 .rodata.str1.1
                0x000000000000fef1       0x24 contiki-srf06-cc26xx.a(strformat.o)
                                         0x37 (size before relaxing)
 .rodata.buffer.4014
                0x000000000000ff15       0x10 contiki-srf06-cc26xx.a(strformat.o)
 .rodata.str1.1
                0x000000000000ff25        0xf contiki-srf06-cc26xx.a(ctimer.o)
 .rodata.str1.1
                0x000000000000ff34        0xc contiki-srf06-cc26xx.a(etimer.o)
 .rodata.str1.1
                0x000000000000ff40        0xe contiki-srf06-cc26xx.a(serial-line.o)
 .rodata        0x000000000000ff4e        0x2 contiki-srf06-cc26xx.a(sicslowpan.o)
 .rodata.ttl_values
                0x000000000000ff50        0x4 contiki-srf06-cc26xx.a(sicslowpan.o)
 .rodata.unc_llconf
                0x000000000000ff54        0x4 contiki-srf06-cc26xx.a(sicslowpan.o)
                0x000000000000ff54                unc_llconf
 .rodata.llprefix
                0x000000000000ff58        0x2 contiki-srf06-cc26xx.a(sicslowpan.o)
                0x000000000000ff58                llprefix
 .rodata.unc_mxconf
                0x000000000000ff5a        0x4 contiki-srf06-cc26xx.a(sicslowpan.o)
                0x000000000000ff5a                unc_mxconf
 .rodata.str1.1
                0x000000000000ff5e        0xb contiki-srf06-cc26xx.a(sicslowpan.o)
 .rodata.unc_ctxconf
                0x000000000000ff69        0x4 contiki-srf06-cc26xx.a(sicslowpan.o)
                0x000000000000ff69                unc_ctxconf
 .rodata.str1.1
                0x000000000000ff6d        0xd contiki-srf06-cc26xx.a(tcpip.o)
 .rodata.str1.1
                0x000000000000ff7a       0x28 contiki-srf06-cc26xx.a(uip-debug.o)
 .rodata.str1.1
                0x000000000000ffa2      0x1a6 contiki-srf06-cc26xx.a(rpl.o)
 .rodata.linkaddr_null
                0x0000000000010148        0x8 contiki-srf06-cc26xx.a(linkaddr.o)
                0x0000000000010148                linkaddr_null
 .rodata.str1.1
                0x0000000000010150        0x5 contiki-srf06-cc26xx.a(csma.o)
 .rodata.str1.1
                0x0000000000010155       0x94 contiki-srf06-cc26xx.a(mac.o)
 .rodata.str1.1
                0x00000000000101e9        0xb contiki-srf06-cc26xx.a(contikimac.o)
 .rodata.str1.1
                0x00000000000101f4        0x8 contiki-srf06-cc26xx.a(nullsec.o)
 .rodata        0x00000000000101fc        0x4 contiki-srf06-cc26xx.a(ext-flash.o)
 .rodata.str1.1
                0x0000000000010200       0x44 contiki-srf06-cc26xx.a(rf-core.o)
                0x0000000000010244                _etext = .

.glue_7         0x0000000000010244        0x0
 .glue_7        0x0000000000010244        0x0 linker stubs

.glue_7t        0x0000000000010244        0x0
 .glue_7t       0x0000000000010244        0x0 linker stubs

.vfp11_veneer   0x0000000000010244        0x0
 .vfp11_veneer  0x0000000000010244        0x0 linker stubs

.v4_bx          0x0000000000010244        0x0
 .v4_bx         0x0000000000010244        0x0 linker stubs

.iplt           0x0000000000010244        0x0
 .iplt          0x0000000000010244        0x0 obj_srf06-cc26xx/startup_gcc.o

.data           0x0000000020000000      0x6b2 load address 0x0000000000010244
                0x0000000020000000                _data = .
 *(SORT(vtable))
 *(SORT(.data*))
 .data.impure_data
                0x0000000020000000      0x428 /usr/lib/gcc/arm-none-eabi/4.8/../../../arm-none-eabi/lib/armv7-m/libc.a(lib_a-impure.o)
 .data.border_router_process
                0x0000000020000428       0x10 border-router.co
                0x0000000020000428                border_router_process
 .data.sensors_process
                0x0000000020000438       0x10 contiki-srf06-cc26xx.a(sensors.o)
                0x0000000020000438                sensors_process
 .data.sensors  0x0000000020000448       0x24 contiki-srf06-cc26xx.a(sensortag-senso)
                0x0000000020000448                sensors
 .data.sensortag_module
                0x000000002000046c       0x14 contiki-srf06-cc26xx.a(board.o)
 .data.slip_process
                0x0000000020000480       0x10 contiki-srf06-cc26xx.a(slip.o)
                0x0000000020000480                slip_process
 .data.uart_module
                0x0000000020000490       0x14 contiki-srf06-cc26xx.a(cc26xx-uart.o)
 .data.cc26xx_rf_lpm_module
                0x00000000200004a4       0x14 contiki-srf06-cc26xx.a(ieee-mode.o)
 .data.ieee_overrides
                0x00000000200004b8       0x2c contiki-srf06-cc26xx.a(ieee-mode.o)
 .data.tx_power_current
                0x00000000200004e4        0x4 contiki-srf06-cc26xx.a(ieee-mode.o)
                0x00000000200004e4                tx_power_current
 .data.rng_module
                0x00000000200004e8       0x14 contiki-srf06-cc26xx.a(soc-trng.o)
 .data.soc_trng_process
                0x00000000200004fc       0x10 contiki-srf06-cc26xx.a(soc-trng.o)
                0x00000000200004fc                soc_trng_process
 .data.ctxt     0x000000002000050c        0x8 contiki-srf06-cc26xx.a(dbg-printf.o)
 .data.ctimer_process
                0x0000000020000514       0x10 contiki-srf06-cc26xx.a(ctimer.o)
                0x0000000020000514                ctimer_process
 .data.etimer_process
                0x0000000020000524       0x10 contiki-srf06-cc26xx.a(etimer.o)
                0x0000000020000524                etimer_process
 .data.serial_line_process
                0x0000000020000534       0x10 contiki-srf06-cc26xx.a(serial-line.o)
                0x0000000020000534                serial_line_process
 .data.defaultroutermemb
                0x0000000020000544        0xc contiki-srf06-cc26xx.a(uip-ds6-route.o)
 .data.nbr_routes_struct
                0x0000000020000550       0x10 contiki-srf06-cc26xx.a(uip-ds6-route.o)
 .data.nbr_routes
                0x0000000020000560        0x4 contiki-srf06-cc26xx.a(uip-ds6-route.o)
                0x0000000020000560                nbr_routes
 .data.routememb
                0x0000000020000564        0xc contiki-srf06-cc26xx.a(uip-ds6-route.o)
 .data.neighborroutememb
                0x0000000020000570        0xc contiki-srf06-cc26xx.a(uip-ds6-route.o)
 .data.ds6_neighbors
                0x000000002000057c        0x4 contiki-srf06-cc26xx.a(uip-ds6-nbr.o)
                0x000000002000057c                ds6_neighbors
 .data.ds6_neighbors_struct
                0x0000000020000580       0x10 contiki-srf06-cc26xx.a(uip-ds6-nbr.o)
 .data.ns_input_handler
                0x0000000020000590        0xc contiki-srf06-cc26xx.a(uip-nd6.o)
 .data.tcpip_process
                0x000000002000059c       0x10 contiki-srf06-cc26xx.a(tcpip.o)
                0x000000002000059c                tcpip_process
 .data.rpl_parents
                0x00000000200005ac        0x4 contiki-srf06-cc26xx.a(rpl-dag.o)
                0x00000000200005ac                rpl_parents
 .data.rpl_parents_struct
                0x00000000200005b0       0x10 contiki-srf06-cc26xx.a(rpl-dag.o)
 .data.rpl_mrhof
                0x00000000200005c0       0x24 contiki-srf06-cc26xx.a(rpl-mrhof.o)
                0x00000000200005c0                rpl_mrhof
 .data.dao_ack_handler
                0x00000000200005e4        0xc contiki-srf06-cc26xx.a(rpl-icmp6.o)
 .data.dis_handler
                0x00000000200005f0        0xc contiki-srf06-cc26xx.a(rpl-icmp6.o)
 .data.dao_handler
                0x00000000200005fc        0xc contiki-srf06-cc26xx.a(rpl-icmp6.o)
 .data.dio_handler
                0x0000000020000608        0xc contiki-srf06-cc26xx.a(rpl-icmp6.o)
 .data.bufmem   0x0000000020000614        0xc contiki-srf06-cc26xx.a(queuebuf.o)
 .data.buframmem
                0x0000000020000620        0xc contiki-srf06-cc26xx.a(queuebuf.o)
 .data.neighbor_addr_mem
                0x000000002000062c        0xc contiki-srf06-cc26xx.a(nbr-table.o)
 .data.link_stats_struct
                0x0000000020000638       0x10 contiki-srf06-cc26xx.a(link-stats.o)
 .data.metadata_memb
                0x0000000020000648        0xc contiki-srf06-cc26xx.a(csma.o)
 .data.packet_memb
                0x0000000020000654        0xc contiki-srf06-cc26xx.a(csma.o)
 .data.neighbor_memb
                0x0000000020000660        0xc contiki-srf06-cc26xx.a(csma.o)
 .data.buzzer_module
                0x000000002000066c       0x14 contiki-srf06-cc26xx.a(buzzer.o)
 .data.rf_core_process
                0x0000000020000680       0x10 contiki-srf06-cc26xx.a(rf-core.o)
                0x0000000020000680                rf_core_process
 .data.echo_request_handler
                0x0000000020000690        0xc contiki-srf06-cc26xx.a(uip-icmp6.o)
 .data.echo_reply_handler
                0x000000002000069c        0xc contiki-srf06-cc26xx.a(uip-icmp6.o)
 .data._impure_ptr
                0x00000000200006a8        0x4 /usr/lib/gcc/arm-none-eabi/4.8/../../../arm-none-eabi/lib/armv7-m/libc.a(lib_a-impure.o)
                0x00000000200006a8                _impure_ptr
 .data.mac_pan_id
                0x00000000200006ac        0x2 contiki-srf06-cc26xx.a(frame802154.o)
 .data.interface
                0x00000000200006ae        0x1 contiki-srf06-cc26xx.a(board-i2c.o)
 .data.rng_ready_event
                0x00000000200006af        0x1 contiki-srf06-cc26xx.a(soc-trng.o)
 .data.dao_sequence
                0x00000000200006b0        0x1 contiki-srf06-cc26xx.a(rpl-icmp6.o)
 .data.__fdlib_version
                0x00000000200006b1        0x1 /usr/lib/gcc/arm-none-eabi/4.8/../../../arm-none-eabi/lib/armv7-m/libm.a(lib_a-s_lib_ver.o)
                0x00000000200006b1                __fdlib_version
                0x00000000200006b2                _edata = .

.igot.plt       0x00000000200006b4        0x0 load address 0x00000000000108f6
 .igot.plt      0x00000000200006b4        0x0 obj_srf06-cc26xx/startup_gcc.o

.ARM.exidx      0x00000000000108f8        0x8
 *(SORT(.ARM.exidx*))
 .ARM.exidx     0x00000000000108f8        0x8 /usr/lib/gcc/arm-none-eabi/4.8/armv7-m/libgcc.a(_divdi3.o)
 .ARM.exidx     0x0000000000010900        0x0 /usr/lib/gcc/arm-none-eabi/4.8/armv7-m/libgcc.a(_udivdi3.o)
                                          0x8 (size before relaxing)

.bss            0x00000000200006b8     0x3e58
                0x00000000200006b8                _bss = .
 *(SORT(.bss*))
 .bss.count     0x00000000200006b8        0x8 contiki-srf06-cc26xx.a(clock.o)
 .bss.last_rat_timestamp64
                0x00000000200006c0        0x8 contiki-srf06-cc26xx.a(ieee-mode.o)
 .bss.rands_cache
                0x00000000200006c8       0x20 contiki-srf06-cc26xx.a(soc-trng.o)
 .bss.et.7889   0x00000000200006e8       0x10 border-router.co
 .bss.i.4757    0x00000000200006f8        0x4 contiki-srf06-cc26xx.a(sensors.o)
 .bss.events.4758
                0x00000000200006fc        0x4 contiki-srf06-cc26xx.a(sensors.o)
 .bss.inited    0x0000000020000700        0x4 contiki-srf06-cc26xx.a(leds-arch.o)
 .bss.startup_timer
                0x0000000020000704       0x20 contiki-srf06-cc26xx.a(bmp-280-sensor.)
 .bss.enabled   0x0000000020000724        0x4 contiki-srf06-cc26xx.a(bmp-280-sensor.)
 .bss.obj_temp_latched
                0x0000000020000728        0x4 contiki-srf06-cc26xx.a(tmp-007-sensor.)
 .bss.startup_timer
                0x000000002000072c       0x20 contiki-srf06-cc26xx.a(tmp-007-sensor.)
 .bss.enabled   0x000000002000074c        0x4 contiki-srf06-cc26xx.a(tmp-007-sensor.)
 .bss.amb_temp_latched
                0x0000000020000750        0x4 contiki-srf06-cc26xx.a(tmp-007-sensor.)
 .bss.startup_timer
                0x0000000020000754       0x20 contiki-srf06-cc26xx.a(opt-3001-sensor)
 .bss.state     0x0000000020000774        0x4 contiki-srf06-cc26xx.a(opt-3001-sensor)
 .bss.startup_timer
                0x0000000020000778       0x20 contiki-srf06-cc26xx.a(hdc-1000-sensor)
 .bss.enabled   0x0000000020000798        0x4 contiki-srf06-cc26xx.a(hdc-1000-sensor)
 .bss.startup_timer
                0x000000002000079c       0x20 contiki-srf06-cc26xx.a(mpu-9250-sensor)
 .bss.state     0x00000000200007bc        0x4 contiki-srf06-cc26xx.a(mpu-9250-sensor)
 .bss.elements  0x00000000200007c0        0x4 contiki-srf06-cc26xx.a(mpu-9250-sensor)
 .bss.left_timer
                0x00000000200007c4       0x10 contiki-srf06-cc26xx.a(button-sensor.o)
 .bss.debouncetimer
                0x00000000200007d4        0x8 contiki-srf06-cc26xx.a(reed-relay.o)
 .bss.last_isr_time
                0x00000000200007dc        0x4 contiki-srf06-cc26xx.a(soc-rtc.o)
 .bss.input_callback
                0x00000000200007e0        0x4 contiki-srf06-cc26xx.a(slip.o)
 .bss.input_handler
                0x00000000200007e4        0x4 contiki-srf06-cc26xx.a(cc26xx-uart.o)
 .bss.modules_list_list
                0x00000000200007e8        0x4 contiki-srf06-cc26xx.a(lpm.o)
 .bss.handlers  0x00000000200007ec       0x80 contiki-srf06-cc26xx.a(gpio-interrupt.)
 .bss.rat_overflow_counter
                0x000000002000086c        0x4 contiki-srf06-cc26xx.a(ieee-mode.o)
 .bss.rx_buf_0  0x0000000020000870       0x90 contiki-srf06-cc26xx.a(ieee-mode.o)
 .bss.rx_buf_1  0x0000000020000900       0x90 contiki-srf06-cc26xx.a(ieee-mode.o)
 .bss.rx_buf_2  0x0000000020000990       0x90 contiki-srf06-cc26xx.a(ieee-mode.o)
 .bss.rx_buf_3  0x0000000020000a20       0x90 contiki-srf06-cc26xx.a(ieee-mode.o)
 .bss.last_packet_timestamp
                0x0000000020000ab0        0x4 contiki-srf06-cc26xx.a(ieee-mode.o)
 .bss.rx_data_queue
                0x0000000020000ab4        0x8 contiki-srf06-cc26xx.a(ieee-mode.o)
 .bss.rat_overflow_timer
                0x0000000020000abc       0x20 contiki-srf06-cc26xx.a(ieee-mode.o)
 .bss.filter_cmd
                0x0000000020000adc        0x8 contiki-srf06-cc26xx.a(ieee-mode.o)
 .bss.last_value.8775
                0x0000000020000ae4        0x4 contiki-srf06-cc26xx.a(ieee-mode.o)
 .bss.rx_read_entry
                0x0000000020000ae8        0x4 contiki-srf06-cc26xx.a(ieee-mode.o)
 .bss.last_rat_overflow
                0x0000000020000aec        0x4 contiki-srf06-cc26xx.a(ieee-mode.o)
 .bss.cmd_ieee_rx_buf
                0x0000000020000af0       0x80 contiki-srf06-cc26xx.a(ieee-mode.o)
 .bss.tx_buf    0x0000000020000b70       0xb8 contiki-srf06-cc26xx.a(ieee-mode.o)
 .bss.notify_cb
                0x0000000020000c28        0x4 contiki-srf06-cc26xx.a(soc-trng.o)
 .bss.ctimer_list_list
                0x0000000020000c2c        0x4 contiki-srf06-cc26xx.a(ctimer.o)
 .bss.timerlist
                0x0000000020000c30        0x4 contiki-srf06-cc26xx.a(etimer.o)
 .bss.next_expiration
                0x0000000020000c34        0x4 contiki-srf06-cc26xx.a(etimer.o)
 .bss.process_current
                0x0000000020000c38        0x4 contiki-srf06-cc26xx.a(process.o)
                0x0000000020000c38                process_current
 .bss.process_list
                0x0000000020000c3c        0x4 contiki-srf06-cc26xx.a(process.o)
                0x0000000020000c3c                process_list
 .bss.events    0x0000000020000c40      0x180 contiki-srf06-cc26xx.a(process.o)
 .bss.next_rtimer
                0x0000000020000dc0        0x4 contiki-srf06-cc26xx.a(rtimer.o)
 .bss.rxbuf     0x0000000020000dc4        0x8 contiki-srf06-cc26xx.a(serial-line.o)
 .bss.ptr.4742  0x0000000020000dcc        0x4 contiki-srf06-cc26xx.a(serial-line.o)
 .bss.locmaddr  0x0000000020000dd0        0x4 contiki-srf06-cc26xx.a(uip-ds6.o)
 .bss.locprefix
                0x0000000020000dd4        0x4 contiki-srf06-cc26xx.a(uip-ds6.o)
 .bss.locaddr   0x0000000020000dd8        0x4 contiki-srf06-cc26xx.a(uip-ds6.o)
 .bss.defaultroutermemb_memb_mem
                0x0000000020000ddc       0x40 contiki-srf06-cc26xx.a(uip-ds6-route.o)
 .bss.num_routes
                0x0000000020000e1c        0x4 contiki-srf06-cc26xx.a(uip-ds6-route.o)
 .bss.defaultrouterlist_list
                0x0000000020000e20        0x4 contiki-srf06-cc26xx.a(uip-ds6-route.o)
 .bss._nbr_routes_mem
                0x0000000020000e24       0xa0 contiki-srf06-cc26xx.a(uip-ds6-route.o)
 .bss.routelist_list
                0x0000000020000ec4        0x4 contiki-srf06-cc26xx.a(uip-ds6-route.o)
 .bss.routememb_memb_mem
                0x0000000020000ec8      0x320 contiki-srf06-cc26xx.a(uip-ds6-route.o)
 .bss.neighborroutememb_memb_mem
                0x00000000200011e8       0xa0 contiki-srf06-cc26xx.a(uip-ds6-route.o)
 .bss.notificationlist_list
                0x0000000020001288        0x4 contiki-srf06-cc26xx.a(uip-ds6-route.o)
 .bss.nbr       0x000000002000128c        0x4 contiki-srf06-cc26xx.a(uip-nd6.o)
 .bss.nd6_opt_llao
                0x0000000020001290        0x4 contiki-srf06-cc26xx.a(uip-nd6.o)
 .bss.addr      0x0000000020001294        0x4 contiki-srf06-cc26xx.a(uip-nd6.o)
 .bss.context   0x0000000020001298        0x4 contiki-srf06-cc26xx.a(sicslowpan.o)
 .bss.last_rssi
                0x000000002000129c        0x4 contiki-srf06-cc26xx.a(sicslowpan.o)
 .bss.hc06_ptr  0x00000000200012a0        0x4 contiki-srf06-cc26xx.a(sicslowpan.o)
 .bss.packetbuf_ptr
                0x00000000200012a4        0x4 contiki-srf06-cc26xx.a(sicslowpan.o)
 .bss.packetbuf_payload_len
                0x00000000200012a8        0x4 contiki-srf06-cc26xx.a(sicslowpan.o)
 .bss.last_tx_status
                0x00000000200012ac        0x4 contiki-srf06-cc26xx.a(sicslowpan.o)
 .bss.callback  0x00000000200012b0        0x4 contiki-srf06-cc26xx.a(sicslowpan.o)
 .bss.frag_info
                0x00000000200012b4      0x170 contiki-srf06-cc26xx.a(sicslowpan.o)
 .bss.s         0x0000000020001424       0xa4 contiki-srf06-cc26xx.a(tcpip.o)
 .bss.periodic  0x00000000200014c8       0x10 contiki-srf06-cc26xx.a(tcpip.o)
 .bss.outputfunc
                0x00000000200014d8        0x4 contiki-srf06-cc26xx.a(tcpip.o)
 .bss._rpl_parents_mem
                0x00000000200014dc       0xa0 contiki-srf06-cc26xx.a(rpl-dag.o)
 .bss.periodic_timer
                0x000000002000157c       0x20 contiki-srf06-cc26xx.a(rpl-timers.o)
 .bss.powerQualGlobals
                0x000000002000159c        0x8 contiki-srf06-cc26xx.a(sys_ctrl.o)
 .bss.bufmem_memb_mem
                0x00000000200015a4       0x80 contiki-srf06-cc26xx.a(queuebuf.o)
 .bss.nbr_table_keys_list
                0x0000000020001624        0x4 contiki-srf06-cc26xx.a(nbr-table.o)
 .bss.neighbor_addr_mem_memb_mem
                0x0000000020001628       0xf0 contiki-srf06-cc26xx.a(nbr-table.o)
 .bss.all_tables
                0x0000000020001718       0x20 contiki-srf06-cc26xx.a(nbr-table.o)
 .bss.num_tables
                0x0000000020001738        0x4 contiki-srf06-cc26xx.a(nbr-table.o)
 .bss.packetbuf_aligned
                0x000000002000173c       0x80 contiki-srf06-cc26xx.a(packetbuf.o)
 .bss._link_stats_mem
                0x00000000200017bc       0xf0 contiki-srf06-cc26xx.a(link-stats.o)
 .bss.packet_memb_memb_mem
                0x00000000200018ac      0x180 contiki-srf06-cc26xx.a(csma.o)
 .bss.metadata_memb_memb_mem
                0x0000000020001a2c      0x180 contiki-srf06-cc26xx.a(csma.o)
 .bss.neighbor_list_list
                0x0000000020001bac        0x4 contiki-srf06-cc26xx.a(csma.o)
 .bss.neighbor_memb_memb_mem
                0x0000000020001bb0       0x70 contiki-srf06-cc26xx.a(csma.o)
 .bss.cycle_start
                0x0000000020001c20        0x4 contiki-srf06-cc26xx.a(contikimac.o)
 .bss.we_are_receiving_burst
                0x0000000020001c24        0x4 contiki-srf06-cc26xx.a(contikimac.o)
 .bss.rt        0x0000000020001c28        0xc contiki-srf06-cc26xx.a(contikimac.o)
 .bss.ct.6937   0x0000000020001c34       0x20 contiki-srf06-cc26xx.a(contikimac.o)
 .bss.start.6862
                0x0000000020001c54        0x4 contiki-srf06-cc26xx.a(contikimac.o)
 .bss.consumers_list_list
                0x0000000020001c58        0x4 contiki-srf06-cc26xx.a(aux-ctrl.o)
 .bss.last_radio_op
                0x0000000020001c5c        0x4 contiki-srf06-cc26xx.a(rf-core.o)
 .bss.primary_mode
                0x0000000020001c60        0x4 contiki-srf06-cc26xx.a(rf-core.o)
 .bss.rat_offset
                0x0000000020001c64        0x4 contiki-srf06-cc26xx.a(rf-core.o)
                0x0000000020001c64                rat_offset
 .bss.echo_reply_callback_list_list
                0x0000000020001c68        0x4 contiki-srf06-cc26xx.a(uip-icmp6.o)
 .bss.input_handler_list_list
                0x0000000020001c6c        0x4 contiki-srf06-cc26xx.a(uip-icmp6.o)
 .bss.periodic_timer
                0x0000000020001c70       0x20 contiki-srf06-cc26xx.a(rpl-nbr-policy.)
 .bss.timer_init
                0x0000000020001c90        0x4 contiki-srf06-cc26xx.a(rpl-nbr-policy.)
 .bss.num_children
                0x0000000020001c94        0x4 contiki-srf06-cc26xx.a(rpl-nbr-policy.)
 .bss.worst_rank_nbr
                0x0000000020001c98        0x4 contiki-srf06-cc26xx.a(rpl-nbr-policy.)
 .bss.num_free  0x0000000020001c9c        0x4 contiki-srf06-cc26xx.a(rpl-nbr-policy.)
 .bss.num_parents
                0x0000000020001ca0        0x4 contiki-srf06-cc26xx.a(rpl-nbr-policy.)
 .bss.received_seqnos
                0x0000000020001ca4      0x100 contiki-srf06-cc26xx.a(mac-sequence.o)
 .bss.prefix    0x0000000020001da4       0x10 border-router.co
 .bss.last_sender
                0x0000000020001db4       0x10 obj_srf06-cc26xx/slip-bridge.o
 .bss.node_id   0x0000000020001dc4        0x2 contiki-srf06-cc26xx.a(contiki-main.o)
                0x0000000020001dc4                node_id
 .bss.val       0x0000000020001dc6        0x2 contiki-srf06-cc26xx.a(tmp-007-sensor.)
 .bss.raw_temp  0x0000000020001dc8        0x2 contiki-srf06-cc26xx.a(hdc-1000-sensor)
 .bss.raw_hum   0x0000000020001dca        0x2 contiki-srf06-cc26xx.a(hdc-1000-sensor)
 .bss.data      0x0000000020001dcc        0x4 contiki-srf06-cc26xx.a(hdc-1000-sensor)
 .bss.sensor_value
                0x0000000020001dd0        0x6 contiki-srf06-cc26xx.a(mpu-9250-sensor)
 .bss.next_free
                0x0000000020001dd6        0x2 contiki-srf06-cc26xx.a(slip.o)
 .bss.pkt_end   0x0000000020001dd8        0x2 contiki-srf06-cc26xx.a(slip.o)
 .bss.begin     0x0000000020001dda        0x2 contiki-srf06-cc26xx.a(slip.o)
 .bss.loc_fipaddr
                0x0000000020001ddc       0x10 contiki-srf06-cc26xx.a(uip-ds6.o)
 .bss.lastport  0x0000000020001dec        0x2 contiki-srf06-cc26xx.a(uip6.o)
 .bss._ds6_neighbors_mem
                0x0000000020001dee      0x168 contiki-srf06-cc26xx.a(uip-ds6-nbr.o)
 .bss.my_tag    0x0000000020001f56        0x2 contiki-srf06-cc26xx.a(sicslowpan.o)
 .bss.next_dis  0x0000000020001f58        0x2 contiki-srf06-cc26xx.a(rpl-timers.o)
 .bss.buframmem_memb_mem
                0x0000000020001f5a     0x1600 contiki-srf06-cc26xx.a(queuebuf.o)
 .bss.buflen    0x000000002000355a        0x2 contiki-srf06-cc26xx.a(packetbuf.o)
 .bss.bufptr    0x000000002000355c        0x2 contiki-srf06-cc26xx.a(packetbuf.o)
 .bss.seqno.6137
                0x000000002000355e        0x2 contiki-srf06-cc26xx.a(csma.o)
 .bss.pt        0x0000000020003560        0x2 contiki-srf06-cc26xx.a(contikimac.o)
 .bss.tmp_ipaddr
                0x0000000020003562       0x10 contiki-srf06-cc26xx.a(uip-icmp6.o)
 .bss.worst_rank
                0x0000000020003572        0x2 contiki-srf06-cc26xx.a(rpl-nbr-policy.)
 .bss.prefix_set
                0x0000000020003574        0x1 border-router.co
 .bss.num_sensors
                0x0000000020003575        0x1 contiki-srf06-cc26xx.a(sensors.o)
 .bss.leds      0x0000000020003576        0x1 contiki-srf06-cc26xx.a(leds.o)
 .bss.c         0x0000000020003577        0x1 contiki-srf06-cc26xx.a(leds-arch.o)
 .bss.sensor_value
                0x0000000020003578        0x6 contiki-srf06-cc26xx.a(bmp-280-sensor.)
 .bss.calibration_data
                0x000000002000357e       0x18 contiki-srf06-cc26xx.a(bmp-280-sensor.)
 .bss.buf       0x0000000020003596        0x4 contiki-srf06-cc26xx.a(tmp-007-sensor.)
 .bss.success   0x000000002000359a        0x1 contiki-srf06-cc26xx.a(hdc-1000-sensor)
 .bss.interrupt_status
                0x000000002000359b        0x1 contiki-srf06-cc26xx.a(mpu-9250-sensor)
 .bss.acc_range_reg
                0x000000002000359c        0x1 contiki-srf06-cc26xx.a(mpu-9250-sensor)
 .bss.mpu_config
                0x000000002000359d        0x1 contiki-srf06-cc26xx.a(mpu-9250-sensor)
 .bss.acc_range
                0x000000002000359e        0x1 contiki-srf06-cc26xx.a(mpu-9250-sensor)
 .bss.val       0x000000002000359f        0x1 contiki-srf06-cc26xx.a(mpu-9250-sensor)
 .bss.slave_addr
                0x00000000200035a0        0x1 contiki-srf06-cc26xx.a(board-i2c.o)
 .bss.state     0x00000000200035a1        0x1 contiki-srf06-cc26xx.a(slip.o)
 .bss.rxbuf     0x00000000200035a2       0x9c contiki-srf06-cc26xx.a(slip.o)
 .bss.poll_mode
                0x000000002000363e        0x1 contiki-srf06-cc26xx.a(ieee-mode.o)
 .bss.last_rssi
                0x000000002000363f        0x1 contiki-srf06-cc26xx.a(ieee-mode.o)
 .bss.rf_stats  0x0000000020003640       0x10 contiki-srf06-cc26xx.a(ieee-mode.o)
 .bss.last_corr_lqi
                0x0000000020003650        0x1 contiki-srf06-cc26xx.a(ieee-mode.o)
 .bss.rands_mask
                0x0000000020003651        0x4 contiki-srf06-cc26xx.a(soc-trng.o)
 .bss.initialized
                0x0000000020003655        0x1 contiki-srf06-cc26xx.a(ctimer.o)
 .bss.fevent    0x0000000020003656        0x1 contiki-srf06-cc26xx.a(process.o)
 .bss.nevents   0x0000000020003657        0x1 contiki-srf06-cc26xx.a(process.o)
 .bss.poll_requested
                0x0000000020003658        0x1 contiki-srf06-cc26xx.a(process.o)
 .bss.lastevent
                0x0000000020003659        0x1 contiki-srf06-cc26xx.a(process.o)
 .bss.rxbuf_data
                0x000000002000365a       0x80 contiki-srf06-cc26xx.a(serial-line.o)
 .bss.buf.4741  0x00000000200036da       0x80 contiki-srf06-cc26xx.a(serial-line.o)
 .bss.defaultroutermemb_memb_count
                0x000000002000375a        0x2 contiki-srf06-cc26xx.a(uip-ds6-route.o)
 .bss.neighborroutememb_memb_count
                0x000000002000375c       0x14 contiki-srf06-cc26xx.a(uip-ds6-route.o)
 .bss.routememb_memb_count
                0x0000000020003770       0x14 contiki-srf06-cc26xx.a(uip-ds6-route.o)
 .bss.uip_ext_len
                0x0000000020003784        0x1 contiki-srf06-cc26xx.a(uip6.o)
                0x0000000020003784                uip_ext_len
 .bss.uip_ext_bitmap
                0x0000000020003785        0x1 contiki-srf06-cc26xx.a(uip6.o)
                0x0000000020003785                uip_ext_bitmap
 .bss.iss       0x0000000020003786        0x4 contiki-srf06-cc26xx.a(uip6.o)
 .bss.uip_ext_opt_offset
                0x000000002000378a        0x1 contiki-srf06-cc26xx.a(uip6.o)
                0x000000002000378a                uip_ext_opt_offset
 .bss.nd6_opt_offset
                0x000000002000378b        0x1 contiki-srf06-cc26xx.a(uip-nd6.o)
 .bss.uncomp_hdr_len
                0x000000002000378c        0x1 contiki-srf06-cc26xx.a(sicslowpan.o)
 .bss.addr_contexts
                0x000000002000378d        0xa contiki-srf06-cc26xx.a(sicslowpan.o)
 .bss.frag_buf  0x0000000020003797      0x54c contiki-srf06-cc26xx.a(sicslowpan.o)
 .bss.packetbuf_hdr_len
                0x0000000020003ce3        0x1 contiki-srf06-cc26xx.a(sicslowpan.o)
 .bss.dio_send_ok
                0x0000000020003ce4        0x1 contiki-srf06-cc26xx.a(rpl-timers.o)
 .bss.mode      0x0000000020003ce5        0x1 contiki-srf06-cc26xx.a(rpl.o)
 .bss.buframmem_memb_count
                0x0000000020003ce6       0x20 contiki-srf06-cc26xx.a(queuebuf.o)
 .bss.bufmem_memb_count
                0x0000000020003d06       0x20 contiki-srf06-cc26xx.a(queuebuf.o)
 .bss.neighbor_addr_mem_memb_count
                0x0000000020003d26       0x14 contiki-srf06-cc26xx.a(nbr-table.o)
 .bss.locked_map
                0x0000000020003d3a       0x14 contiki-srf06-cc26xx.a(nbr-table.o)
 .bss.used_map  0x0000000020003d4e       0x14 contiki-srf06-cc26xx.a(nbr-table.o)
 .bss.hdrlen    0x0000000020003d62        0x1 contiki-srf06-cc26xx.a(packetbuf.o)
 .bss.mac_dsn   0x0000000020003d63        0x1 contiki-srf06-cc26xx.a(framer-802154.o)
 .bss.initialized
                0x0000000020003d64        0x1 contiki-srf06-cc26xx.a(framer-802154.o)
 .bss.initialized.6136
                0x0000000020003d65        0x1 contiki-srf06-cc26xx.a(csma.o)
 .bss.packet_memb_memb_count
                0x0000000020003d66       0x20 contiki-srf06-cc26xx.a(csma.o)
 .bss.metadata_memb_memb_count
                0x0000000020003d86       0x20 contiki-srf06-cc26xx.a(csma.o)
 .bss.neighbor_memb_memb_count
                0x0000000020003da6        0x2 contiki-srf06-cc26xx.a(csma.o)
 .bss.radio_is_on
                0x0000000020003da8        0x1 contiki-srf06-cc26xx.a(contikimac.o)
 .bss.we_are_sending
                0x0000000020003da9        0x1 contiki-srf06-cc26xx.a(contikimac.o)
 .bss.contikimac_keep_radio_on
                0x0000000020003daa        0x1 contiki-srf06-cc26xx.a(contikimac.o)
 .bss.silence_periods.6863
                0x0000000020003dab        0x1 contiki-srf06-cc26xx.a(contikimac.o)
 .bss.contikimac_is_on
                0x0000000020003dac        0x1 contiki-srf06-cc26xx.a(contikimac.o)
 .bss.packet_seen.6856
                0x0000000020003dad        0x1 contiki-srf06-cc26xx.a(contikimac.o)
 .bss.count.6857
                0x0000000020003dae        0x1 contiki-srf06-cc26xx.a(contikimac.o)
 .bss.periods.6864
                0x0000000020003daf        0x1 contiki-srf06-cc26xx.a(contikimac.o)
 .bss.buffer    0x0000000020003db0       0x20 contiki-srf06-cc26xx.a(sensor-common.o)
 .bss.buzzer_on
                0x0000000020003dd0        0x1 contiki-srf06-cc26xx.a(buzzer.o)
 .bss.rat_offset_known
                0x0000000020003dd1        0x1 contiki-srf06-cc26xx.a(rf-core.o)
 .bss.ble_mode_on
                0x0000000020003dd2        0x1 contiki-srf06-cc26xx.a(rf-ble.o)
 *(SORT(COMMON))
 *fill*         0x0000000020003dd3        0x1 
 COMMON         0x0000000020003dd4        0x4 contiki-srf06-cc26xx.a(mpu-9250-sensor)
                0x0000000020003dd4                t0
 COMMON         0x0000000020003dd8      0x174 contiki-srf06-cc26xx.a(uip-ds6.o)
                0x0000000020003dd8                uip_ds6_timer_ra
                0x0000000020003de0                uip_ds6_if
                0x0000000020003ed8                uip_ds6_netif_addr_list_offset
                0x0000000020003ed9                uip_ds6_addr_size
                0x0000000020003edc                uip_ds6_prefix_list
                0x0000000020003f3c                uip_ds6_timer_periodic
 COMMON         0x0000000020003f4c      0x408 contiki-srf06-cc26xx.a(uip6.o)
                0x0000000020003f4c                uip_len
                0x0000000020003f50                uip_sappdata
                0x0000000020003f54                uip_acc32
                0x0000000020003f58                uip_lladdr
                0x0000000020003f60                uip_aligned_buf
                0x0000000020003fec                uip_flags
                0x0000000020003ff0                uip_next_hdr
                0x0000000020003ff4                uip_udp_conn
                0x0000000020003ff8                uip_appdata
                0x0000000020003ffc                uip_conn
                0x0000000020004000                uip_conns
                0x00000000200041e0                uip_icmp6_conns
                0x00000000200041e8                uip_listenports
                0x0000000020004210                uip_slen
                0x0000000020004214                uip_udp_conns
 COMMON         0x0000000020004354      0x158 contiki-srf06-cc26xx.a(rpl-dag.o)
                0x0000000020004354                default_instance
                0x0000000020004358                instance_table
 COMMON         0x00000000200044ac       0x20 contiki-srf06-cc26xx.a(link-stats.o)
                0x00000000200044ac                periodic_timer
 COMMON         0x00000000200044cc       0x2e contiki-srf06-cc26xx.a(packetbuf.o)
                0x00000000200044cc                packetbuf_addrs
                0x00000000200044dc                packetbuf_attrs
 COMMON         0x00000000200044fa        0x1 contiki-srf06-cc26xx.a(sensors.o)
                0x00000000200044fa                sensors_event
 COMMON         0x00000000200044fb        0x9 contiki-srf06-cc26xx.a(sensortag-senso)
                0x00000000200044fb                sensors_flags
 COMMON         0x0000000020004504        0x1 contiki-srf06-cc26xx.a(slip.o)
                0x0000000020004504                slip_active
 COMMON         0x0000000020004505        0x1 contiki-srf06-cc26xx.a(serial-line.o)
                0x0000000020004505                serial_line_event_message
 COMMON         0x0000000020004506        0x2 contiki-srf06-cc26xx.a(tcpip.o)
                0x0000000020004506                tcpip_event
                0x0000000020004507                tcpip_icmp6_event
 COMMON         0x0000000020004508        0x8 contiki-srf06-cc26xx.a(linkaddr.o)
                0x0000000020004508                linkaddr_node_addr
                0x0000000020004510                _ebss = .

.ccfg           0x000000000001ffa8       0x58
 *(SORT(.ccfg))
 .ccfg          0x000000000001ffa8       0x58 obj_srf06-cc26xx/ccfg.o
                0x000000000001ffa8                __ccfg

.rel.dyn        0x0000000000020000        0x0
 .rel.iplt      0x0000000000020000        0x0 obj_srf06-cc26xx/startup_gcc.o

._user_heap_stack
                0x0000000020004510      0x100
                0x0000000020004510                . = ALIGN (0x4)
                0x0000000020004510                . = (. + _Min_Heap_Size)
                0x0000000020004610                . = (. + _Min_Stack_Size)
 *fill*         0x0000000020004510      0x100 
                0x0000000020004610                . = ALIGN (0x4)

.gpram
OUTPUT(border-router.elf elf32-littlearm)

.comment        0x0000000000000000       0x58
 .comment       0x0000000000000000       0x2d obj_srf06-cc26xx/fault-handlers.o
                                         0x2e (size before relaxing)
 .comment       0x000000000000002d       0x2e obj_srf06-cc26xx/ccfg.o
 .comment       0x000000000000002d       0x2e obj_srf06-cc26xx/startup_gcc.o
 .comment       0x000000000000002d       0x2e border-router.co
 .comment       0x000000000000002d       0x2e obj_srf06-cc26xx/slip-bridge.o
 .comment       0x000000000000002d       0x2e contiki-srf06-cc26xx.a(contiki-main.o)
 .comment       0x000000000000002d       0x2e contiki-srf06-cc26xx.a(sensors.o)
 .comment       0x000000000000002d       0x2e contiki-srf06-cc26xx.a(leds.o)
 .comment       0x000000000000002d       0x2e contiki-srf06-cc26xx.a(leds-arch.o)
 .comment       0x000000000000002d       0x2e contiki-srf06-cc26xx.a(sensortag-senso)
 .comment       0x000000000000002d       0x2e contiki-srf06-cc26xx.a(bmp-280-sensor.)
 .comment       0x000000000000002d       0x2e contiki-srf06-cc26xx.a(tmp-007-sensor.)
 .comment       0x000000000000002d       0x2e contiki-srf06-cc26xx.a(opt-3001-sensor)
 .comment       0x000000000000002d       0x2e contiki-srf06-cc26xx.a(hdc-1000-sensor)
 .comment       0x000000000000002d       0x2e contiki-srf06-cc26xx.a(mpu-9250-sensor)
 .comment       0x000000000000002d       0x2e contiki-srf06-cc26xx.a(button-sensor.o)
 .comment       0x000000000000002d       0x2e contiki-srf06-cc26xx.a(reed-relay.o)
 .comment       0x000000000000002d       0x2e contiki-srf06-cc26xx.a(board.o)
 .comment       0x000000000000002d       0x2e contiki-srf06-cc26xx.a(board-i2c.o)
 .comment       0x000000000000002d       0x2e contiki-srf06-cc26xx.a(clock.o)
 .comment       0x000000000000002d       0x2e contiki-srf06-cc26xx.a(rtimer-arch.o)
 .comment       0x000000000000002d       0x2e contiki-srf06-cc26xx.a(soc-rtc.o)
 .comment       0x000000000000002d       0x2e contiki-srf06-cc26xx.a(contiki-watchdo)
 .comment       0x000000000000002d       0x2e contiki-srf06-cc26xx.a(putchar.o)
 .comment       0x000000000000002d       0x2e contiki-srf06-cc26xx.a(ieee-addr.o)
 .comment       0x000000000000002d       0x2e contiki-srf06-cc26xx.a(slip-arch.o)
 .comment       0x000000000000002d       0x2e contiki-srf06-cc26xx.a(slip.o)
 .comment       0x000000000000002d       0x2e contiki-srf06-cc26xx.a(cc26xx-uart.o)
 .comment       0x000000000000002d       0x2e contiki-srf06-cc26xx.a(lpm.o)
 .comment       0x000000000000002d       0x2e contiki-srf06-cc26xx.a(gpio-interrupt.)
 .comment       0x000000000000002d       0x2e contiki-srf06-cc26xx.a(oscillators.o)
 .comment       0x000000000000002d       0x2e contiki-srf06-cc26xx.a(ieee-mode.o)
 .comment       0x000000000000002d       0x2e contiki-srf06-cc26xx.a(random.o)
 .comment       0x000000000000002d       0x2e contiki-srf06-cc26xx.a(soc-trng.o)
 .comment       0x000000000000002d       0x2e contiki-srf06-cc26xx.a(dbg-printf.o)
 .comment       0x000000000000002d       0x2e contiki-srf06-cc26xx.a(strformat.o)
 .comment       0x000000000000002d       0x2e contiki-srf06-cc26xx.a(ctimer.o)
 .comment       0x000000000000002d       0x2e contiki-srf06-cc26xx.a(autostart.o)
 .comment       0x000000000000002d       0x2e contiki-srf06-cc26xx.a(energest.o)
 .comment       0x000000000000002d       0x2e contiki-srf06-cc26xx.a(etimer.o)
 .comment       0x000000000000002d       0x2e contiki-srf06-cc26xx.a(process.o)
 .comment       0x000000000000002d       0x2e contiki-srf06-cc26xx.a(rtimer.o)
 .comment       0x000000000000002d       0x2e contiki-srf06-cc26xx.a(timer.o)
 .comment       0x000000000000002d       0x2e contiki-srf06-cc26xx.a(serial-line.o)
 .comment       0x000000000000002d       0x2e contiki-srf06-cc26xx.a(list.o)
 .comment       0x000000000000002d       0x2e contiki-srf06-cc26xx.a(ringbuf.o)
 .comment       0x000000000000002d       0x2e contiki-srf06-cc26xx.a(uip-ds6.o)
 .comment       0x000000000000002d       0x2e contiki-srf06-cc26xx.a(uip-ds6-route.o)
 .comment       0x000000000000002d       0x2e contiki-srf06-cc26xx.a(uip6.o)
 .comment       0x000000000000002d       0x2e contiki-srf06-cc26xx.a(uip-ds6-nbr.o)
 .comment       0x000000000000002d       0x2e contiki-srf06-cc26xx.a(uip-nd6.o)
 .comment       0x000000000000002d       0x2e contiki-srf06-cc26xx.a(sicslowpan.o)
 .comment       0x000000000000002d       0x2e contiki-srf06-cc26xx.a(tcpip.o)
 .comment       0x000000000000002d       0x2e contiki-srf06-cc26xx.a(uip-debug.o)
 .comment       0x000000000000002d       0x2e contiki-srf06-cc26xx.a(rpl-dag.o)
 .comment       0x000000000000002d       0x2e contiki-srf06-cc26xx.a(rpl-timers.o)
 .comment       0x000000000000002d       0x2e contiki-srf06-cc26xx.a(rpl-ext-header.)
 .comment       0x000000000000002d       0x2e contiki-srf06-cc26xx.a(rpl.o)
 .comment       0x000000000000002d       0x2e contiki-srf06-cc26xx.a(rpl-mrhof.o)
 .comment       0x000000000000002d       0x2e contiki-srf06-cc26xx.a(rpl-icmp6.o)
 .comment       0x000000000000002d       0x2e contiki-srf06-cc26xx.a(setup.o)
 .comment       0x000000000000002d       0x2e contiki-srf06-cc26xx.a(adi.o)
 .comment       0x000000000000002d       0x2e contiki-srf06-cc26xx.a(ddi.o)
 .comment       0x000000000000002d       0x2e contiki-srf06-cc26xx.a(pwr_ctrl.o)
 .comment       0x000000000000002d       0x2e contiki-srf06-cc26xx.a(osc.o)
 .comment       0x000000000000002d       0x2e contiki-srf06-cc26xx.a(trng.o)
 .comment       0x000000000000002d       0x2e contiki-srf06-cc26xx.a(cpu.o)
 .comment       0x000000000000002d       0x2e contiki-srf06-cc26xx.a(sys_ctrl.o)
 .comment       0x000000000000002d       0x2e contiki-srf06-cc26xx.a(aon_rtc.o)
 .comment       0x000000000000002d       0x2e contiki-srf06-cc26xx.a(chipinfo.o)
 .comment       0x000000000000002d       0x2e contiki-srf06-cc26xx.a(queuebuf.o)
 .comment       0x000000000000002d       0x2e contiki-srf06-cc26xx.a(nbr-table.o)
 .comment       0x000000000000002d       0x2e contiki-srf06-cc26xx.a(packetbuf.o)
 .comment       0x000000000000002d       0x2e contiki-srf06-cc26xx.a(netstack.o)
 .comment       0x000000000000002d       0x2e contiki-srf06-cc26xx.a(linkaddr.o)
 .comment       0x000000000000002d       0x2e contiki-srf06-cc26xx.a(link-stats.o)
 .comment       0x000000000000002d       0x2e contiki-srf06-cc26xx.a(framer-802154.o)
 .comment       0x000000000000002d       0x2e contiki-srf06-cc26xx.a(csma.o)
 .comment       0x000000000000002d       0x2e contiki-srf06-cc26xx.a(frame802154.o)
 .comment       0x000000000000002d       0x2e contiki-srf06-cc26xx.a(mac.o)
 .comment       0x000000000000002d       0x2e contiki-srf06-cc26xx.a(contikimac.o)
 .comment       0x000000000000002d       0x2e contiki-srf06-cc26xx.a(nullsec.o)
 .comment       0x000000000000002d       0x2e contiki-srf06-cc26xx.a(sensor-common.o)
 .comment       0x000000000000002d       0x2e contiki-srf06-cc26xx.a(ext-flash.o)
 .comment       0x000000000000002d       0x2e contiki-srf06-cc26xx.a(buzzer.o)
 .comment       0x000000000000002d       0x2e contiki-srf06-cc26xx.a(board-spi.o)
 .comment       0x000000000000002d       0x2e contiki-srf06-cc26xx.a(aux-ctrl.o)
 .comment       0x000000000000002d       0x2e contiki-srf06-cc26xx.a(rf-core.o)
 .comment       0x000000000000002d       0x2e contiki-srf06-cc26xx.a(rf-ble.o)
 .comment       0x000000000000002d       0x2e contiki-srf06-cc26xx.a(stimer.o)
 .comment       0x000000000000002d       0x2e contiki-srf06-cc26xx.a(memb.o)
 .comment       0x000000000000002d       0x2e contiki-srf06-cc26xx.a(uip-icmp6.o)
 .comment       0x000000000000002d       0x2e contiki-srf06-cc26xx.a(rpl-nbr-policy.)
 .comment       0x000000000000002d       0x2e contiki-srf06-cc26xx.a(setup_rom.o)
 .comment       0x000000000000002d       0x2e contiki-srf06-cc26xx.a(aon_batmon.o)
 .comment       0x000000000000002d       0x2e contiki-srf06-cc26xx.a(mac-sequence.o)
 .comment       0x000000000000002d       0x2b /usr/lib/gcc/arm-none-eabi/4.8/../../../arm-none-eabi/lib/armv7-m/libm.a(lib_a-w_exp2.o)
                                         0x2c (size before relaxing)
 .comment       0x0000000000000058       0x2c /usr/lib/gcc/arm-none-eabi/4.8/../../../arm-none-eabi/lib/armv7-m/libm.a(lib_a-w_pow.o)
 .comment       0x0000000000000058       0x2c /usr/lib/gcc/arm-none-eabi/4.8/../../../arm-none-eabi/lib/armv7-m/libm.a(lib_a-e_pow.o)
 .comment       0x0000000000000058       0x2c /usr/lib/gcc/arm-none-eabi/4.8/../../../arm-none-eabi/lib/armv7-m/libm.a(lib_a-e_sqrt.o)
 .comment       0x0000000000000058       0x2c /usr/lib/gcc/arm-none-eabi/4.8/../../../arm-none-eabi/lib/armv7-m/libm.a(lib_a-s_fabs.o)
 .comment       0x0000000000000058       0x2c /usr/lib/gcc/arm-none-eabi/4.8/../../../arm-none-eabi/lib/armv7-m/libm.a(lib_a-s_finite.o)
 .comment       0x0000000000000058       0x2c /usr/lib/gcc/arm-none-eabi/4.8/../../../arm-none-eabi/lib/armv7-m/libm.a(lib_a-s_fpclassify.o)
 .comment       0x0000000000000058       0x2c /usr/lib/gcc/arm-none-eabi/4.8/../../../arm-none-eabi/lib/armv7-m/libm.a(lib_a-s_lib_ver.o)
 .comment       0x0000000000000058       0x2c /usr/lib/gcc/arm-none-eabi/4.8/../../../arm-none-eabi/lib/armv7-m/libm.a(lib_a-s_matherr.o)
 .comment       0x0000000000000058       0x2c /usr/lib/gcc/arm-none-eabi/4.8/../../../arm-none-eabi/lib/armv7-m/libm.a(lib_a-s_nan.o)
 .comment       0x0000000000000058       0x2c /usr/lib/gcc/arm-none-eabi/4.8/../../../arm-none-eabi/lib/armv7-m/libm.a(lib_a-s_rint.o)
 .comment       0x0000000000000058       0x2c /usr/lib/gcc/arm-none-eabi/4.8/../../../arm-none-eabi/lib/armv7-m/libm.a(lib_a-s_scalbn.o)
 .comment       0x0000000000000058       0x2c /usr/lib/gcc/arm-none-eabi/4.8/../../../arm-none-eabi/lib/armv7-m/libm.a(lib_a-s_copysign.o)
 .comment       0x0000000000000058       0x2e /usr/lib/gcc/arm-none-eabi/4.8/armv7-m/libgcc.a(bpabi.o)
 .comment       0x0000000000000058       0x2e /usr/lib/gcc/arm-none-eabi/4.8/armv7-m/libgcc.a(_divdi3.o)
 .comment       0x0000000000000058       0x2e /usr/lib/gcc/arm-none-eabi/4.8/armv7-m/libgcc.a(_udivdi3.o)
 .comment       0x0000000000000058       0x2c /usr/lib/gcc/arm-none-eabi/4.8/../../../arm-none-eabi/lib/armv7-m/libc.a(lib_a-errno.o)
 .comment       0x0000000000000058       0x2c /usr/lib/gcc/arm-none-eabi/4.8/../../../arm-none-eabi/lib/armv7-m/libc.a(lib_a-impure.o)
 .comment       0x0000000000000058       0x2c /usr/lib/gcc/arm-none-eabi/4.8/../../../arm-none-eabi/lib/armv7-m/libc.a(lib_a-memcmp.o)
 .comment       0x0000000000000058       0x2c /usr/lib/gcc/arm-none-eabi/4.8/../../../arm-none-eabi/lib/armv7-m/libc.a(lib_a-memmove.o)
 .comment       0x0000000000000058       0x2c /usr/lib/gcc/arm-none-eabi/4.8/../../../arm-none-eabi/lib/armv7-m/libc.a(lib_a-memset.o)
 .comment       0x0000000000000058       0x2c /usr/lib/gcc/arm-none-eabi/4.8/../../../arm-none-eabi/lib/armv7-m/libc.a(lib_a-strlen.o)

.ARM.attributes
                0x0000000000000000       0x31
 .ARM.attributes
                0x0000000000000000       0x33 obj_srf06-cc26xx/fault-handlers.o
 .ARM.attributes
                0x0000000000000033       0x33 obj_srf06-cc26xx/ccfg.o
 .ARM.attributes
                0x0000000000000066       0x33 obj_srf06-cc26xx/startup_gcc.o
 .ARM.attributes
                0x0000000000000099       0x33 border-router.co
 .ARM.attributes
                0x00000000000000cc       0x33 obj_srf06-cc26xx/slip-bridge.o
 .ARM.attributes
                0x00000000000000ff       0x33 contiki-srf06-cc26xx.a(contiki-main.o)
 .ARM.attributes
                0x0000000000000132       0x33 contiki-srf06-cc26xx.a(sensors.o)
 .ARM.attributes
                0x0000000000000165       0x33 contiki-srf06-cc26xx.a(leds.o)
 .ARM.attributes
                0x0000000000000198       0x33 contiki-srf06-cc26xx.a(leds-arch.o)
 .ARM.attributes
                0x00000000000001cb       0x33 contiki-srf06-cc26xx.a(sensortag-senso)
 .ARM.attributes
                0x00000000000001fe       0x33 contiki-srf06-cc26xx.a(bmp-280-sensor.)
 .ARM.attributes
                0x0000000000000231       0x33 contiki-srf06-cc26xx.a(tmp-007-sensor.)
 .ARM.attributes
                0x0000000000000264       0x33 contiki-srf06-cc26xx.a(opt-3001-sensor)
 .ARM.attributes
                0x0000000000000297       0x33 contiki-srf06-cc26xx.a(hdc-1000-sensor)
 .ARM.attributes
                0x00000000000002ca       0x33 contiki-srf06-cc26xx.a(mpu-9250-sensor)
 .ARM.attributes
                0x00000000000002fd       0x33 contiki-srf06-cc26xx.a(button-sensor.o)
 .ARM.attributes
                0x0000000000000330       0x33 contiki-srf06-cc26xx.a(reed-relay.o)
 .ARM.attributes
                0x0000000000000363       0x33 contiki-srf06-cc26xx.a(board.o)
 .ARM.attributes
                0x0000000000000396       0x33 contiki-srf06-cc26xx.a(board-i2c.o)
 .ARM.attributes
                0x00000000000003c9       0x33 contiki-srf06-cc26xx.a(clock.o)
 .ARM.attributes
                0x00000000000003fc       0x33 contiki-srf06-cc26xx.a(rtimer-arch.o)
 .ARM.attributes
                0x000000000000042f       0x33 contiki-srf06-cc26xx.a(soc-rtc.o)
 .ARM.attributes
                0x0000000000000462       0x33 contiki-srf06-cc26xx.a(contiki-watchdo)
 .ARM.attributes
                0x0000000000000495       0x33 contiki-srf06-cc26xx.a(putchar.o)
 .ARM.attributes
                0x00000000000004c8       0x33 contiki-srf06-cc26xx.a(ieee-addr.o)
 .ARM.attributes
                0x00000000000004fb       0x33 contiki-srf06-cc26xx.a(slip-arch.o)
 .ARM.attributes
                0x000000000000052e       0x33 contiki-srf06-cc26xx.a(slip.o)
 .ARM.attributes
                0x0000000000000561       0x33 contiki-srf06-cc26xx.a(cc26xx-uart.o)
 .ARM.attributes
                0x0000000000000594       0x33 contiki-srf06-cc26xx.a(lpm.o)
 .ARM.attributes
                0x00000000000005c7       0x33 contiki-srf06-cc26xx.a(gpio-interrupt.)
 .ARM.attributes
                0x00000000000005fa       0x33 contiki-srf06-cc26xx.a(oscillators.o)
 .ARM.attributes
                0x000000000000062d       0x33 contiki-srf06-cc26xx.a(ieee-mode.o)
 .ARM.attributes
                0x0000000000000660       0x33 contiki-srf06-cc26xx.a(random.o)
 .ARM.attributes
                0x0000000000000693       0x33 contiki-srf06-cc26xx.a(soc-trng.o)
 .ARM.attributes
                0x00000000000006c6       0x33 contiki-srf06-cc26xx.a(dbg-printf.o)
 .ARM.attributes
                0x00000000000006f9       0x33 contiki-srf06-cc26xx.a(strformat.o)
 .ARM.attributes
                0x000000000000072c       0x33 contiki-srf06-cc26xx.a(ctimer.o)
 .ARM.attributes
                0x000000000000075f       0x33 contiki-srf06-cc26xx.a(autostart.o)
 .ARM.attributes
                0x0000000000000792       0x33 contiki-srf06-cc26xx.a(energest.o)
 .ARM.attributes
                0x00000000000007c5       0x33 contiki-srf06-cc26xx.a(etimer.o)
 .ARM.attributes
                0x00000000000007f8       0x33 contiki-srf06-cc26xx.a(process.o)
 .ARM.attributes
                0x000000000000082b       0x33 contiki-srf06-cc26xx.a(rtimer.o)
 .ARM.attributes
                0x000000000000085e       0x33 contiki-srf06-cc26xx.a(timer.o)
 .ARM.attributes
                0x0000000000000891       0x33 contiki-srf06-cc26xx.a(serial-line.o)
 .ARM.attributes
                0x00000000000008c4       0x33 contiki-srf06-cc26xx.a(list.o)
 .ARM.attributes
                0x00000000000008f7       0x33 contiki-srf06-cc26xx.a(ringbuf.o)
 .ARM.attributes
                0x000000000000092a       0x33 contiki-srf06-cc26xx.a(uip-ds6.o)
 .ARM.attributes
                0x000000000000095d       0x33 contiki-srf06-cc26xx.a(uip-ds6-route.o)
 .ARM.attributes
                0x0000000000000990       0x33 contiki-srf06-cc26xx.a(uip6.o)
 .ARM.attributes
                0x00000000000009c3       0x33 contiki-srf06-cc26xx.a(uip-ds6-nbr.o)
 .ARM.attributes
                0x00000000000009f6       0x33 contiki-srf06-cc26xx.a(uip-nd6.o)
 .ARM.attributes
                0x0000000000000a29       0x33 contiki-srf06-cc26xx.a(sicslowpan.o)
 .ARM.attributes
                0x0000000000000a5c       0x33 contiki-srf06-cc26xx.a(tcpip.o)
 .ARM.attributes
                0x0000000000000a8f       0x33 contiki-srf06-cc26xx.a(uip-debug.o)
 .ARM.attributes
                0x0000000000000ac2       0x33 contiki-srf06-cc26xx.a(rpl-dag.o)
 .ARM.attributes
                0x0000000000000af5       0x33 contiki-srf06-cc26xx.a(rpl-timers.o)
 .ARM.attributes
                0x0000000000000b28       0x33 contiki-srf06-cc26xx.a(rpl-ext-header.)
 .ARM.attributes
                0x0000000000000b5b       0x33 contiki-srf06-cc26xx.a(rpl.o)
 .ARM.attributes
                0x0000000000000b8e       0x33 contiki-srf06-cc26xx.a(rpl-mrhof.o)
 .ARM.attributes
                0x0000000000000bc1       0x33 contiki-srf06-cc26xx.a(rpl-icmp6.o)
 .ARM.attributes
                0x0000000000000bf4       0x33 contiki-srf06-cc26xx.a(setup.o)
 .ARM.attributes
                0x0000000000000c27       0x33 contiki-srf06-cc26xx.a(adi.o)
 .ARM.attributes
                0x0000000000000c5a       0x33 contiki-srf06-cc26xx.a(ddi.o)
 .ARM.attributes
                0x0000000000000c8d       0x33 contiki-srf06-cc26xx.a(pwr_ctrl.o)
 .ARM.attributes
                0x0000000000000cc0       0x33 contiki-srf06-cc26xx.a(osc.o)
 .ARM.attributes
                0x0000000000000cf3       0x33 contiki-srf06-cc26xx.a(trng.o)
 .ARM.attributes
                0x0000000000000d26       0x33 contiki-srf06-cc26xx.a(cpu.o)
 .ARM.attributes
                0x0000000000000d59       0x33 contiki-srf06-cc26xx.a(sys_ctrl.o)
 .ARM.attributes
                0x0000000000000d8c       0x33 contiki-srf06-cc26xx.a(aon_rtc.o)
 .ARM.attributes
                0x0000000000000dbf       0x33 contiki-srf06-cc26xx.a(chipinfo.o)
 .ARM.attributes
                0x0000000000000df2       0x33 contiki-srf06-cc26xx.a(queuebuf.o)
 .ARM.attributes
                0x0000000000000e25       0x33 contiki-srf06-cc26xx.a(nbr-table.o)
 .ARM.attributes
                0x0000000000000e58       0x33 contiki-srf06-cc26xx.a(packetbuf.o)
 .ARM.attributes
                0x0000000000000e8b       0x33 contiki-srf06-cc26xx.a(netstack.o)
 .ARM.attributes
                0x0000000000000ebe       0x33 contiki-srf06-cc26xx.a(linkaddr.o)
 .ARM.attributes
                0x0000000000000ef1       0x33 contiki-srf06-cc26xx.a(link-stats.o)
 .ARM.attributes
                0x0000000000000f24       0x33 contiki-srf06-cc26xx.a(framer-802154.o)
 .ARM.attributes
                0x0000000000000f57       0x33 contiki-srf06-cc26xx.a(csma.o)
 .ARM.attributes
                0x0000000000000f8a       0x33 contiki-srf06-cc26xx.a(frame802154.o)
 .ARM.attributes
                0x0000000000000fbd       0x33 contiki-srf06-cc26xx.a(mac.o)
 .ARM.attributes
                0x0000000000000ff0       0x33 contiki-srf06-cc26xx.a(contikimac.o)
 .ARM.attributes
                0x0000000000001023       0x33 contiki-srf06-cc26xx.a(nullsec.o)
 .ARM.attributes
                0x0000000000001056       0x33 contiki-srf06-cc26xx.a(sensor-common.o)
 .ARM.attributes
                0x0000000000001089       0x33 contiki-srf06-cc26xx.a(ext-flash.o)
 .ARM.attributes
                0x00000000000010bc       0x33 contiki-srf06-cc26xx.a(buzzer.o)
 .ARM.attributes
                0x00000000000010ef       0x33 contiki-srf06-cc26xx.a(board-spi.o)
 .ARM.attributes
                0x0000000000001122       0x33 contiki-srf06-cc26xx.a(aux-ctrl.o)
 .ARM.attributes
                0x0000000000001155       0x33 contiki-srf06-cc26xx.a(rf-core.o)
 .ARM.attributes
                0x0000000000001188       0x33 contiki-srf06-cc26xx.a(rf-ble.o)
 .ARM.attributes
                0x00000000000011bb       0x33 contiki-srf06-cc26xx.a(stimer.o)
 .ARM.attributes
                0x00000000000011ee       0x33 contiki-srf06-cc26xx.a(memb.o)
 .ARM.attributes
                0x0000000000001221       0x33 contiki-srf06-cc26xx.a(uip-icmp6.o)
 .ARM.attributes
                0x0000000000001254       0x33 contiki-srf06-cc26xx.a(rpl-nbr-policy.)
 .ARM.attributes
                0x0000000000001287       0x33 contiki-srf06-cc26xx.a(setup_rom.o)
 .ARM.attributes
                0x00000000000012ba       0x33 contiki-srf06-cc26xx.a(aon_batmon.o)
 .ARM.attributes
                0x00000000000012ed       0x33 contiki-srf06-cc26xx.a(mac-sequence.o)
 .ARM.attributes
                0x0000000000001320       0x2d /usr/lib/gcc/arm-none-eabi/4.8/../../../arm-none-eabi/lib/armv7-m/libm.a(lib_a-w_exp2.o)
 .ARM.attributes
                0x000000000000134d       0x2d /usr/lib/gcc/arm-none-eabi/4.8/../../../arm-none-eabi/lib/armv7-m/libm.a(lib_a-w_pow.o)
 .ARM.attributes
                0x000000000000137a       0x2d /usr/lib/gcc/arm-none-eabi/4.8/../../../arm-none-eabi/lib/armv7-m/libm.a(lib_a-e_pow.o)
 .ARM.attributes
                0x00000000000013a7       0x2d /usr/lib/gcc/arm-none-eabi/4.8/../../../arm-none-eabi/lib/armv7-m/libm.a(lib_a-e_sqrt.o)
 .ARM.attributes
                0x00000000000013d4       0x2d /usr/lib/gcc/arm-none-eabi/4.8/../../../arm-none-eabi/lib/armv7-m/libm.a(lib_a-s_fabs.o)
 .ARM.attributes
                0x0000000000001401       0x2d /usr/lib/gcc/arm-none-eabi/4.8/../../../arm-none-eabi/lib/armv7-m/libm.a(lib_a-s_finite.o)
 .ARM.attributes
                0x000000000000142e       0x2d /usr/lib/gcc/arm-none-eabi/4.8/../../../arm-none-eabi/lib/armv7-m/libm.a(lib_a-s_fpclassify.o)
 .ARM.attributes
                0x000000000000145b       0x2d /usr/lib/gcc/arm-none-eabi/4.8/../../../arm-none-eabi/lib/armv7-m/libm.a(lib_a-s_lib_ver.o)
 .ARM.attributes
                0x0000000000001488       0x2d /usr/lib/gcc/arm-none-eabi/4.8/../../../arm-none-eabi/lib/armv7-m/libm.a(lib_a-s_matherr.o)
 .ARM.attributes
                0x00000000000014b5       0x2d /usr/lib/gcc/arm-none-eabi/4.8/../../../arm-none-eabi/lib/armv7-m/libm.a(lib_a-s_nan.o)
 .ARM.attributes
                0x00000000000014e2       0x2d /usr/lib/gcc/arm-none-eabi/4.8/../../../arm-none-eabi/lib/armv7-m/libm.a(lib_a-s_rint.o)
 .ARM.attributes
                0x000000000000150f       0x2d /usr/lib/gcc/arm-none-eabi/4.8/../../../arm-none-eabi/lib/armv7-m/libm.a(lib_a-s_scalbn.o)
 .ARM.attributes
                0x000000000000153c       0x2d /usr/lib/gcc/arm-none-eabi/4.8/../../../arm-none-eabi/lib/armv7-m/libm.a(lib_a-s_copysign.o)
 .ARM.attributes
                0x0000000000001569       0x1d /usr/lib/gcc/arm-none-eabi/4.8/armv7-m/libgcc.a(_arm_addsubdf3.o)
 .ARM.attributes
                0x0000000000001586       0x1d /usr/lib/gcc/arm-none-eabi/4.8/armv7-m/libgcc.a(_arm_muldivdf3.o)
 .ARM.attributes
                0x00000000000015a3       0x1d /usr/lib/gcc/arm-none-eabi/4.8/armv7-m/libgcc.a(_arm_cmpdf2.o)
 .ARM.attributes
                0x00000000000015c0       0x1d /usr/lib/gcc/arm-none-eabi/4.8/armv7-m/libgcc.a(_arm_truncdfsf2.o)
 .ARM.attributes
                0x00000000000015dd       0x1d /usr/lib/gcc/arm-none-eabi/4.8/armv7-m/libgcc.a(_arm_addsubsf3.o)
 .ARM.attributes
                0x00000000000015fa       0x1d /usr/lib/gcc/arm-none-eabi/4.8/armv7-m/libgcc.a(_arm_muldivsf3.o)
 .ARM.attributes
                0x0000000000001617       0x1d /usr/lib/gcc/arm-none-eabi/4.8/armv7-m/libgcc.a(_arm_fixsfsi.o)
 .ARM.attributes
                0x0000000000001634       0x1d /usr/lib/gcc/arm-none-eabi/4.8/armv7-m/libgcc.a(_aeabi_uldivmod.o)
 .ARM.attributes
                0x0000000000001651       0x2d /usr/lib/gcc/arm-none-eabi/4.8/armv7-m/libgcc.a(bpabi.o)
 .ARM.attributes
                0x000000000000167e       0x1d /usr/lib/gcc/arm-none-eabi/4.8/armv7-m/libgcc.a(_dvmd_tls.o)
 .ARM.attributes
                0x000000000000169b       0x2d /usr/lib/gcc/arm-none-eabi/4.8/armv7-m/libgcc.a(_divdi3.o)
 .ARM.attributes
                0x00000000000016c8       0x2d /usr/lib/gcc/arm-none-eabi/4.8/armv7-m/libgcc.a(_udivdi3.o)
 .ARM.attributes
                0x00000000000016f5       0x2d /usr/lib/gcc/arm-none-eabi/4.8/../../../arm-none-eabi/lib/armv7-m/libc.a(lib_a-errno.o)
 .ARM.attributes
                0x0000000000001722       0x2d /usr/lib/gcc/arm-none-eabi/4.8/../../../arm-none-eabi/lib/armv7-m/libc.a(lib_a-impure.o)
 .ARM.attributes
                0x000000000000174f       0x2d /usr/lib/gcc/arm-none-eabi/4.8/../../../arm-none-eabi/lib/armv7-m/libc.a(lib_a-memcmp.o)
 .ARM.attributes
                0x000000000000177c       0x1b /usr/lib/gcc/arm-none-eabi/4.8/../../../arm-none-eabi/lib/armv7-m/libc.a(lib_a-memcpy.o)
 .ARM.attributes
                0x0000000000001797       0x2d /usr/lib/gcc/arm-none-eabi/4.8/../../../arm-none-eabi/lib/armv7-m/libc.a(lib_a-memmove.o)
 .ARM.attributes
                0x00000000000017c4       0x2d /usr/lib/gcc/arm-none-eabi/4.8/../../../arm-none-eabi/lib/armv7-m/libc.a(lib_a-memset.o)
 .ARM.attributes
                0x00000000000017f1       0x2d /usr/lib/gcc/arm-none-eabi/4.8/../../../arm-none-eabi/lib/armv7-m/libc.a(lib_a-strlen.o)

.debug_info     0x0000000000000000     0x423f
 .debug_info    0x0000000000000000       0xd6 /usr/lib/gcc/arm-none-eabi/4.8/../../../arm-none-eabi/lib/armv7-m/libm.a(lib_a-w_exp2.o)
 .debug_info    0x00000000000000d6      0x2e4 /usr/lib/gcc/arm-none-eabi/4.8/../../../arm-none-eabi/lib/armv7-m/libm.a(lib_a-w_pow.o)
 .debug_info    0x00000000000003ba      0x776 /usr/lib/gcc/arm-none-eabi/4.8/../../../arm-none-eabi/lib/armv7-m/libm.a(lib_a-e_pow.o)
 .debug_info    0x0000000000000b30      0x231 /usr/lib/gcc/arm-none-eabi/4.8/../../../arm-none-eabi/lib/armv7-m/libm.a(lib_a-e_sqrt.o)
 .debug_info    0x0000000000000d61      0x136 /usr/lib/gcc/arm-none-eabi/4.8/../../../arm-none-eabi/lib/armv7-m/libm.a(lib_a-s_fabs.o)
 .debug_info    0x0000000000000e97       0xd7 /usr/lib/gcc/arm-none-eabi/4.8/../../../arm-none-eabi/lib/armv7-m/libm.a(lib_a-s_finite.o)
 .debug_info    0x0000000000000f6e       0xdb /usr/lib/gcc/arm-none-eabi/4.8/../../../arm-none-eabi/lib/armv7-m/libm.a(lib_a-s_fpclassify.o)
 .debug_info    0x0000000000001049       0xbe /usr/lib/gcc/arm-none-eabi/4.8/../../../arm-none-eabi/lib/armv7-m/libm.a(lib_a-s_lib_ver.o)
 .debug_info    0x0000000000001107      0x129 /usr/lib/gcc/arm-none-eabi/4.8/../../../arm-none-eabi/lib/armv7-m/libm.a(lib_a-s_matherr.o)
 .debug_info    0x0000000000001230       0xd2 /usr/lib/gcc/arm-none-eabi/4.8/../../../arm-none-eabi/lib/armv7-m/libm.a(lib_a-s_nan.o)
 .debug_info    0x0000000000001302      0x20e /usr/lib/gcc/arm-none-eabi/4.8/../../../arm-none-eabi/lib/armv7-m/libm.a(lib_a-s_rint.o)
 .debug_info    0x0000000000001510      0x26d /usr/lib/gcc/arm-none-eabi/4.8/../../../arm-none-eabi/lib/armv7-m/libm.a(lib_a-s_scalbn.o)
 .debug_info    0x000000000000177d      0x151 /usr/lib/gcc/arm-none-eabi/4.8/../../../arm-none-eabi/lib/armv7-m/libm.a(lib_a-s_copysign.o)
 .debug_info    0x00000000000018ce       0xc5 /usr/lib/gcc/arm-none-eabi/4.8/armv7-m/libgcc.a(_arm_addsubdf3.o)
 .debug_info    0x0000000000001993       0xc5 /usr/lib/gcc/arm-none-eabi/4.8/armv7-m/libgcc.a(_arm_muldivdf3.o)
 .debug_info    0x0000000000001a58       0xc5 /usr/lib/gcc/arm-none-eabi/4.8/armv7-m/libgcc.a(_arm_cmpdf2.o)
 .debug_info    0x0000000000001b1d       0xc5 /usr/lib/gcc/arm-none-eabi/4.8/armv7-m/libgcc.a(_arm_truncdfsf2.o)
 .debug_info    0x0000000000001be2       0xc5 /usr/lib/gcc/arm-none-eabi/4.8/armv7-m/libgcc.a(_arm_addsubsf3.o)
 .debug_info    0x0000000000001ca7       0xc5 /usr/lib/gcc/arm-none-eabi/4.8/armv7-m/libgcc.a(_arm_muldivsf3.o)
 .debug_info    0x0000000000001d6c       0xc5 /usr/lib/gcc/arm-none-eabi/4.8/armv7-m/libgcc.a(_arm_fixsfsi.o)
 .debug_info    0x0000000000001e31       0xc0 /usr/lib/gcc/arm-none-eabi/4.8/armv7-m/libgcc.a(_aeabi_uldivmod.o)
 .debug_info    0x0000000000001ef1      0x164 /usr/lib/gcc/arm-none-eabi/4.8/armv7-m/libgcc.a(bpabi.o)
 .debug_info    0x0000000000002055       0xc4 /usr/lib/gcc/arm-none-eabi/4.8/armv7-m/libgcc.a(_dvmd_tls.o)
 .debug_info    0x0000000000002119      0x5ac /usr/lib/gcc/arm-none-eabi/4.8/armv7-m/libgcc.a(_divdi3.o)
 .debug_info    0x00000000000026c5      0x577 /usr/lib/gcc/arm-none-eabi/4.8/armv7-m/libgcc.a(_udivdi3.o)
 .debug_info    0x0000000000002c3c      0x889 /usr/lib/gcc/arm-none-eabi/4.8/../../../arm-none-eabi/lib/armv7-m/libc.a(lib_a-errno.o)
 .debug_info    0x00000000000034c5      0x894 /usr/lib/gcc/arm-none-eabi/4.8/../../../arm-none-eabi/lib/armv7-m/libc.a(lib_a-impure.o)
 .debug_info    0x0000000000003d59      0x113 /usr/lib/gcc/arm-none-eabi/4.8/../../../arm-none-eabi/lib/armv7-m/libc.a(lib_a-memcmp.o)
 .debug_info    0x0000000000003e6c       0xd6 /usr/lib/gcc/arm-none-eabi/4.8/../../../arm-none-eabi/lib/armv7-m/libc.a(lib_a-memcpy.o)
 .debug_info    0x0000000000003f42      0x131 /usr/lib/gcc/arm-none-eabi/4.8/../../../arm-none-eabi/lib/armv7-m/libc.a(lib_a-memmove.o)
 .debug_info    0x0000000000004073      0x117 /usr/lib/gcc/arm-none-eabi/4.8/../../../arm-none-eabi/lib/armv7-m/libc.a(lib_a-memset.o)
 .debug_info    0x000000000000418a       0xb5 /usr/lib/gcc/arm-none-eabi/4.8/../../../arm-none-eabi/lib/armv7-m/libc.a(lib_a-strlen.o)

.debug_abbrev   0x0000000000000000     0x148c
 .debug_abbrev  0x0000000000000000       0x7d /usr/lib/gcc/arm-none-eabi/4.8/../../../arm-none-eabi/lib/armv7-m/libm.a(lib_a-w_exp2.o)
 .debug_abbrev  0x000000000000007d      0x14d /usr/lib/gcc/arm-none-eabi/4.8/../../../arm-none-eabi/lib/armv7-m/libm.a(lib_a-w_pow.o)
 .debug_abbrev  0x00000000000001ca      0x1eb /usr/lib/gcc/arm-none-eabi/4.8/../../../arm-none-eabi/lib/armv7-m/libm.a(lib_a-e_pow.o)
 .debug_abbrev  0x00000000000003b5      0x118 /usr/lib/gcc/arm-none-eabi/4.8/../../../arm-none-eabi/lib/armv7-m/libm.a(lib_a-e_sqrt.o)
 .debug_abbrev  0x00000000000004cd       0xc8 /usr/lib/gcc/arm-none-eabi/4.8/../../../arm-none-eabi/lib/armv7-m/libm.a(lib_a-s_fabs.o)
 .debug_abbrev  0x0000000000000595       0x6f /usr/lib/gcc/arm-none-eabi/4.8/../../../arm-none-eabi/lib/armv7-m/libm.a(lib_a-s_finite.o)
 .debug_abbrev  0x0000000000000604       0x6f /usr/lib/gcc/arm-none-eabi/4.8/../../../arm-none-eabi/lib/armv7-m/libm.a(lib_a-s_fpclassify.o)
 .debug_abbrev  0x0000000000000673       0x4f /usr/lib/gcc/arm-none-eabi/4.8/../../../arm-none-eabi/lib/armv7-m/libm.a(lib_a-s_lib_ver.o)
 .debug_abbrev  0x00000000000006c2       0x9a /usr/lib/gcc/arm-none-eabi/4.8/../../../arm-none-eabi/lib/armv7-m/libm.a(lib_a-s_matherr.o)
 .debug_abbrev  0x000000000000075c       0x72 /usr/lib/gcc/arm-none-eabi/4.8/../../../arm-none-eabi/lib/armv7-m/libm.a(lib_a-s_nan.o)
 .debug_abbrev  0x00000000000007ce      0x12b /usr/lib/gcc/arm-none-eabi/4.8/../../../arm-none-eabi/lib/armv7-m/libm.a(lib_a-s_rint.o)
 .debug_abbrev  0x00000000000008f9      0x138 /usr/lib/gcc/arm-none-eabi/4.8/../../../arm-none-eabi/lib/armv7-m/libm.a(lib_a-s_scalbn.o)
 .debug_abbrev  0x0000000000000a31       0xe6 /usr/lib/gcc/arm-none-eabi/4.8/../../../arm-none-eabi/lib/armv7-m/libm.a(lib_a-s_copysign.o)
 .debug_abbrev  0x0000000000000b17       0x14 /usr/lib/gcc/arm-none-eabi/4.8/armv7-m/libgcc.a(_arm_addsubdf3.o)
 .debug_abbrev  0x0000000000000b2b       0x14 /usr/lib/gcc/arm-none-eabi/4.8/armv7-m/libgcc.a(_arm_muldivdf3.o)
 .debug_abbrev  0x0000000000000b3f       0x14 /usr/lib/gcc/arm-none-eabi/4.8/armv7-m/libgcc.a(_arm_cmpdf2.o)
 .debug_abbrev  0x0000000000000b53       0x14 /usr/lib/gcc/arm-none-eabi/4.8/armv7-m/libgcc.a(_arm_truncdfsf2.o)
 .debug_abbrev  0x0000000000000b67       0x14 /usr/lib/gcc/arm-none-eabi/4.8/armv7-m/libgcc.a(_arm_addsubsf3.o)
 .debug_abbrev  0x0000000000000b7b       0x14 /usr/lib/gcc/arm-none-eabi/4.8/armv7-m/libgcc.a(_arm_muldivsf3.o)
 .debug_abbrev  0x0000000000000b8f       0x14 /usr/lib/gcc/arm-none-eabi/4.8/armv7-m/libgcc.a(_arm_fixsfsi.o)
 .debug_abbrev  0x0000000000000ba3       0x14 /usr/lib/gcc/arm-none-eabi/4.8/armv7-m/libgcc.a(_aeabi_uldivmod.o)
 .debug_abbrev  0x0000000000000bb7       0xb7 /usr/lib/gcc/arm-none-eabi/4.8/armv7-m/libgcc.a(bpabi.o)
 .debug_abbrev  0x0000000000000c6e       0x14 /usr/lib/gcc/arm-none-eabi/4.8/armv7-m/libgcc.a(_dvmd_tls.o)
 .debug_abbrev  0x0000000000000c82      0x15a /usr/lib/gcc/arm-none-eabi/4.8/armv7-m/libgcc.a(_divdi3.o)
 .debug_abbrev  0x0000000000000ddc      0x154 /usr/lib/gcc/arm-none-eabi/4.8/armv7-m/libgcc.a(_udivdi3.o)
 .debug_abbrev  0x0000000000000f30      0x18f /usr/lib/gcc/arm-none-eabi/4.8/../../../arm-none-eabi/lib/armv7-m/libc.a(lib_a-errno.o)
 .debug_abbrev  0x00000000000010bf      0x180 /usr/lib/gcc/arm-none-eabi/4.8/../../../arm-none-eabi/lib/armv7-m/libc.a(lib_a-impure.o)
 .debug_abbrev  0x000000000000123f       0x7f /usr/lib/gcc/arm-none-eabi/4.8/../../../arm-none-eabi/lib/armv7-m/libc.a(lib_a-memcmp.o)
 .debug_abbrev  0x00000000000012be       0x14 /usr/lib/gcc/arm-none-eabi/4.8/../../../arm-none-eabi/lib/armv7-m/libc.a(lib_a-memcpy.o)
 .debug_abbrev  0x00000000000012d2       0xab /usr/lib/gcc/arm-none-eabi/4.8/../../../arm-none-eabi/lib/armv7-m/libc.a(lib_a-memmove.o)
 .debug_abbrev  0x000000000000137d       0x9f /usr/lib/gcc/arm-none-eabi/4.8/../../../arm-none-eabi/lib/armv7-m/libc.a(lib_a-memset.o)
 .debug_abbrev  0x000000000000141c       0x70 /usr/lib/gcc/arm-none-eabi/4.8/../../../arm-none-eabi/lib/armv7-m/libc.a(lib_a-strlen.o)

.debug_loc      0x0000000000000000     0x3f7a
 .debug_loc     0x0000000000000000       0x28 /usr/lib/gcc/arm-none-eabi/4.8/../../../arm-none-eabi/lib/armv7-m/libm.a(lib_a-w_exp2.o)
 .debug_loc     0x0000000000000028      0x136 /usr/lib/gcc/arm-none-eabi/4.8/../../../arm-none-eabi/lib/armv7-m/libm.a(lib_a-w_pow.o)
 .debug_loc     0x000000000000015e     0x131d /usr/lib/gcc/arm-none-eabi/4.8/../../../arm-none-eabi/lib/armv7-m/libm.a(lib_a-e_pow.o)
 .debug_loc     0x000000000000147b      0x406 /usr/lib/gcc/arm-none-eabi/4.8/../../../arm-none-eabi/lib/armv7-m/libm.a(lib_a-e_sqrt.o)
 .debug_loc     0x0000000000001881       0x18 /usr/lib/gcc/arm-none-eabi/4.8/../../../arm-none-eabi/lib/armv7-m/libm.a(lib_a-s_fabs.o)
 .debug_loc     0x0000000000001899       0x3b /usr/lib/gcc/arm-none-eabi/4.8/../../../arm-none-eabi/lib/armv7-m/libm.a(lib_a-s_finite.o)
 .debug_loc     0x00000000000018d4      0x126 /usr/lib/gcc/arm-none-eabi/4.8/../../../arm-none-eabi/lib/armv7-m/libm.a(lib_a-s_fpclassify.o)
 .debug_loc     0x00000000000019fa       0x21 /usr/lib/gcc/arm-none-eabi/4.8/../../../arm-none-eabi/lib/armv7-m/libm.a(lib_a-s_matherr.o)
 .debug_loc     0x0000000000001a1b       0x21 /usr/lib/gcc/arm-none-eabi/4.8/../../../arm-none-eabi/lib/armv7-m/libm.a(lib_a-s_nan.o)
 .debug_loc     0x0000000000001a3c      0x2d4 /usr/lib/gcc/arm-none-eabi/4.8/../../../arm-none-eabi/lib/armv7-m/libm.a(lib_a-s_rint.o)
 .debug_loc     0x0000000000001d10      0x25d /usr/lib/gcc/arm-none-eabi/4.8/../../../arm-none-eabi/lib/armv7-m/libm.a(lib_a-s_scalbn.o)
 .debug_loc     0x0000000000001f6d       0x53 /usr/lib/gcc/arm-none-eabi/4.8/../../../arm-none-eabi/lib/armv7-m/libm.a(lib_a-s_copysign.o)
 .debug_loc     0x0000000000001fc0       0xa0 /usr/lib/gcc/arm-none-eabi/4.8/armv7-m/libgcc.a(bpabi.o)
 .debug_loc     0x0000000000002060      0xc65 /usr/lib/gcc/arm-none-eabi/4.8/armv7-m/libgcc.a(_divdi3.o)
 .debug_loc     0x0000000000002cc5      0xd14 /usr/lib/gcc/arm-none-eabi/4.8/armv7-m/libgcc.a(_udivdi3.o)
 .debug_loc     0x00000000000039d9      0x12b /usr/lib/gcc/arm-none-eabi/4.8/../../../arm-none-eabi/lib/armv7-m/libc.a(lib_a-memcmp.o)
 .debug_loc     0x0000000000003b04      0x2ca /usr/lib/gcc/arm-none-eabi/4.8/../../../arm-none-eabi/lib/armv7-m/libc.a(lib_a-memmove.o)
 .debug_loc     0x0000000000003dce      0x18b /usr/lib/gcc/arm-none-eabi/4.8/../../../arm-none-eabi/lib/armv7-m/libc.a(lib_a-memset.o)
 .debug_loc     0x0000000000003f59       0x21 /usr/lib/gcc/arm-none-eabi/4.8/../../../arm-none-eabi/lib/armv7-m/libc.a(lib_a-strlen.o)

.debug_aranges  0x0000000000000000      0x3f0
 .debug_aranges
                0x0000000000000000       0x20 /usr/lib/gcc/arm-none-eabi/4.8/../../../arm-none-eabi/lib/armv7-m/libm.a(lib_a-w_exp2.o)
 .debug_aranges
                0x0000000000000020       0x20 /usr/lib/gcc/arm-none-eabi/4.8/../../../arm-none-eabi/lib/armv7-m/libm.a(lib_a-w_pow.o)
 .debug_aranges
                0x0000000000000040       0x20 /usr/lib/gcc/arm-none-eabi/4.8/../../../arm-none-eabi/lib/armv7-m/libm.a(lib_a-e_pow.o)
 .debug_aranges
                0x0000000000000060       0x20 /usr/lib/gcc/arm-none-eabi/4.8/../../../arm-none-eabi/lib/armv7-m/libm.a(lib_a-e_sqrt.o)
 .debug_aranges
                0x0000000000000080       0x20 /usr/lib/gcc/arm-none-eabi/4.8/../../../arm-none-eabi/lib/armv7-m/libm.a(lib_a-s_fabs.o)
 .debug_aranges
                0x00000000000000a0       0x20 /usr/lib/gcc/arm-none-eabi/4.8/../../../arm-none-eabi/lib/armv7-m/libm.a(lib_a-s_finite.o)
 .debug_aranges
                0x00000000000000c0       0x20 /usr/lib/gcc/arm-none-eabi/4.8/../../../arm-none-eabi/lib/armv7-m/libm.a(lib_a-s_fpclassify.o)
 .debug_aranges
                0x00000000000000e0       0x18 /usr/lib/gcc/arm-none-eabi/4.8/../../../arm-none-eabi/lib/armv7-m/libm.a(lib_a-s_lib_ver.o)
 .debug_aranges
                0x00000000000000f8       0x20 /usr/lib/gcc/arm-none-eabi/4.8/../../../arm-none-eabi/lib/armv7-m/libm.a(lib_a-s_matherr.o)
 .debug_aranges
                0x0000000000000118       0x20 /usr/lib/gcc/arm-none-eabi/4.8/../../../arm-none-eabi/lib/armv7-m/libm.a(lib_a-s_nan.o)
 .debug_aranges
                0x0000000000000138       0x20 /usr/lib/gcc/arm-none-eabi/4.8/../../../arm-none-eabi/lib/armv7-m/libm.a(lib_a-s_rint.o)
 .debug_aranges
                0x0000000000000158       0x20 /usr/lib/gcc/arm-none-eabi/4.8/../../../arm-none-eabi/lib/armv7-m/libm.a(lib_a-s_scalbn.o)
 .debug_aranges
                0x0000000000000178       0x20 /usr/lib/gcc/arm-none-eabi/4.8/../../../arm-none-eabi/lib/armv7-m/libm.a(lib_a-s_copysign.o)
 .debug_aranges
                0x0000000000000198       0x20 /usr/lib/gcc/arm-none-eabi/4.8/armv7-m/libgcc.a(_arm_addsubdf3.o)
 .debug_aranges
                0x00000000000001b8       0x20 /usr/lib/gcc/arm-none-eabi/4.8/armv7-m/libgcc.a(_arm_muldivdf3.o)
 .debug_aranges
                0x00000000000001d8       0x20 /usr/lib/gcc/arm-none-eabi/4.8/armv7-m/libgcc.a(_arm_cmpdf2.o)
 .debug_aranges
                0x00000000000001f8       0x20 /usr/lib/gcc/arm-none-eabi/4.8/armv7-m/libgcc.a(_arm_truncdfsf2.o)
 .debug_aranges
                0x0000000000000218       0x20 /usr/lib/gcc/arm-none-eabi/4.8/armv7-m/libgcc.a(_arm_addsubsf3.o)
 .debug_aranges
                0x0000000000000238       0x20 /usr/lib/gcc/arm-none-eabi/4.8/armv7-m/libgcc.a(_arm_muldivsf3.o)
 .debug_aranges
                0x0000000000000258       0x20 /usr/lib/gcc/arm-none-eabi/4.8/armv7-m/libgcc.a(_arm_fixsfsi.o)
 .debug_aranges
                0x0000000000000278       0x20 /usr/lib/gcc/arm-none-eabi/4.8/armv7-m/libgcc.a(_aeabi_uldivmod.o)
 .debug_aranges
                0x0000000000000298       0x20 /usr/lib/gcc/arm-none-eabi/4.8/armv7-m/libgcc.a(bpabi.o)
 .debug_aranges
                0x00000000000002b8       0x20 /usr/lib/gcc/arm-none-eabi/4.8/armv7-m/libgcc.a(_dvmd_tls.o)
 .debug_aranges
                0x00000000000002d8       0x20 /usr/lib/gcc/arm-none-eabi/4.8/armv7-m/libgcc.a(_divdi3.o)
 .debug_aranges
                0x00000000000002f8       0x20 /usr/lib/gcc/arm-none-eabi/4.8/armv7-m/libgcc.a(_udivdi3.o)
 .debug_aranges
                0x0000000000000318       0x20 /usr/lib/gcc/arm-none-eabi/4.8/../../../arm-none-eabi/lib/armv7-m/libc.a(lib_a-errno.o)
 .debug_aranges
                0x0000000000000338       0x18 /usr/lib/gcc/arm-none-eabi/4.8/../../../arm-none-eabi/lib/armv7-m/libc.a(lib_a-impure.o)
 .debug_aranges
                0x0000000000000350       0x20 /usr/lib/gcc/arm-none-eabi/4.8/../../../arm-none-eabi/lib/armv7-m/libc.a(lib_a-memcmp.o)
 .debug_aranges
                0x0000000000000370       0x20 /usr/lib/gcc/arm-none-eabi/4.8/../../../arm-none-eabi/lib/armv7-m/libc.a(lib_a-memcpy.o)
 .debug_aranges
                0x0000000000000390       0x20 /usr/lib/gcc/arm-none-eabi/4.8/../../../arm-none-eabi/lib/armv7-m/libc.a(lib_a-memmove.o)
 .debug_aranges
                0x00000000000003b0       0x20 /usr/lib/gcc/arm-none-eabi/4.8/../../../arm-none-eabi/lib/armv7-m/libc.a(lib_a-memset.o)
 .debug_aranges
                0x00000000000003d0       0x20 /usr/lib/gcc/arm-none-eabi/4.8/../../../arm-none-eabi/lib/armv7-m/libc.a(lib_a-strlen.o)

.debug_ranges   0x0000000000000000      0x428
 .debug_ranges  0x0000000000000000       0x10 /usr/lib/gcc/arm-none-eabi/4.8/../../../arm-none-eabi/lib/armv7-m/libm.a(lib_a-w_exp2.o)
 .debug_ranges  0x0000000000000010       0x10 /usr/lib/gcc/arm-none-eabi/4.8/../../../arm-none-eabi/lib/armv7-m/libm.a(lib_a-w_pow.o)
 .debug_ranges  0x0000000000000020      0x108 /usr/lib/gcc/arm-none-eabi/4.8/../../../arm-none-eabi/lib/armv7-m/libm.a(lib_a-e_pow.o)
 .debug_ranges  0x0000000000000128       0x10 /usr/lib/gcc/arm-none-eabi/4.8/../../../arm-none-eabi/lib/armv7-m/libm.a(lib_a-e_sqrt.o)
 .debug_ranges  0x0000000000000138       0x10 /usr/lib/gcc/arm-none-eabi/4.8/../../../arm-none-eabi/lib/armv7-m/libm.a(lib_a-s_fabs.o)
 .debug_ranges  0x0000000000000148       0x10 /usr/lib/gcc/arm-none-eabi/4.8/../../../arm-none-eabi/lib/armv7-m/libm.a(lib_a-s_finite.o)
 .debug_ranges  0x0000000000000158       0x10 /usr/lib/gcc/arm-none-eabi/4.8/../../../arm-none-eabi/lib/armv7-m/libm.a(lib_a-s_fpclassify.o)
 .debug_ranges  0x0000000000000168       0x10 /usr/lib/gcc/arm-none-eabi/4.8/../../../arm-none-eabi/lib/armv7-m/libm.a(lib_a-s_matherr.o)
 .debug_ranges  0x0000000000000178       0x10 /usr/lib/gcc/arm-none-eabi/4.8/../../../arm-none-eabi/lib/armv7-m/libm.a(lib_a-s_nan.o)
 .debug_ranges  0x0000000000000188       0x28 /usr/lib/gcc/arm-none-eabi/4.8/../../../arm-none-eabi/lib/armv7-m/libm.a(lib_a-s_rint.o)
 .debug_ranges  0x00000000000001b0       0x28 /usr/lib/gcc/arm-none-eabi/4.8/../../../arm-none-eabi/lib/armv7-m/libm.a(lib_a-s_scalbn.o)
 .debug_ranges  0x00000000000001d8       0x10 /usr/lib/gcc/arm-none-eabi/4.8/../../../arm-none-eabi/lib/armv7-m/libm.a(lib_a-s_copysign.o)
 .debug_ranges  0x00000000000001e8       0xf0 /usr/lib/gcc/arm-none-eabi/4.8/armv7-m/libgcc.a(_divdi3.o)
 .debug_ranges  0x00000000000002d8      0x100 /usr/lib/gcc/arm-none-eabi/4.8/armv7-m/libgcc.a(_udivdi3.o)
 .debug_ranges  0x00000000000003d8       0x10 /usr/lib/gcc/arm-none-eabi/4.8/../../../arm-none-eabi/lib/armv7-m/libc.a(lib_a-errno.o)
 .debug_ranges  0x00000000000003e8       0x10 /usr/lib/gcc/arm-none-eabi/4.8/../../../arm-none-eabi/lib/armv7-m/libc.a(lib_a-memcmp.o)
 .debug_ranges  0x00000000000003f8       0x10 /usr/lib/gcc/arm-none-eabi/4.8/../../../arm-none-eabi/lib/armv7-m/libc.a(lib_a-memmove.o)
 .debug_ranges  0x0000000000000408       0x10 /usr/lib/gcc/arm-none-eabi/4.8/../../../arm-none-eabi/lib/armv7-m/libc.a(lib_a-memset.o)
 .debug_ranges  0x0000000000000418       0x10 /usr/lib/gcc/arm-none-eabi/4.8/../../../arm-none-eabi/lib/armv7-m/libc.a(lib_a-strlen.o)

.debug_line     0x0000000000000000     0x2314
 .debug_line    0x0000000000000000       0xb8 /usr/lib/gcc/arm-none-eabi/4.8/../../../arm-none-eabi/lib/armv7-m/libm.a(lib_a-w_exp2.o)
 .debug_line    0x00000000000000b8      0x225 /usr/lib/gcc/arm-none-eabi/4.8/../../../arm-none-eabi/lib/armv7-m/libm.a(lib_a-w_pow.o)
 .debug_line    0x00000000000002dd      0x313 /usr/lib/gcc/arm-none-eabi/4.8/../../../arm-none-eabi/lib/armv7-m/libm.a(lib_a-e_pow.o)
 .debug_line    0x00000000000005f0      0x192 /usr/lib/gcc/arm-none-eabi/4.8/../../../arm-none-eabi/lib/armv7-m/libm.a(lib_a-e_sqrt.o)
 .debug_line    0x0000000000000782      0x15d /usr/lib/gcc/arm-none-eabi/4.8/../../../arm-none-eabi/lib/armv7-m/libm.a(lib_a-s_fabs.o)
 .debug_line    0x00000000000008df      0x127 /usr/lib/gcc/arm-none-eabi/4.8/../../../arm-none-eabi/lib/armv7-m/libm.a(lib_a-s_finite.o)
 .debug_line    0x0000000000000a06      0x14b /usr/lib/gcc/arm-none-eabi/4.8/../../../arm-none-eabi/lib/armv7-m/libm.a(lib_a-s_fpclassify.o)
 .debug_line    0x0000000000000b51       0xab /usr/lib/gcc/arm-none-eabi/4.8/../../../arm-none-eabi/lib/armv7-m/libm.a(lib_a-s_lib_ver.o)
 .debug_line    0x0000000000000bfc       0xbc /usr/lib/gcc/arm-none-eabi/4.8/../../../arm-none-eabi/lib/armv7-m/libm.a(lib_a-s_matherr.o)
 .debug_line    0x0000000000000cb8       0xb9 /usr/lib/gcc/arm-none-eabi/4.8/../../../arm-none-eabi/lib/armv7-m/libm.a(lib_a-s_nan.o)
 .debug_line    0x0000000000000d71      0x18f /usr/lib/gcc/arm-none-eabi/4.8/../../../arm-none-eabi/lib/armv7-m/libm.a(lib_a-s_rint.o)
 .debug_line    0x0000000000000f00      0x15f /usr/lib/gcc/arm-none-eabi/4.8/../../../arm-none-eabi/lib/armv7-m/libm.a(lib_a-s_scalbn.o)
 .debug_line    0x000000000000105f      0x136 /usr/lib/gcc/arm-none-eabi/4.8/../../../arm-none-eabi/lib/armv7-m/libm.a(lib_a-s_copysign.o)
 .debug_line    0x0000000000001195      0x17c /usr/lib/gcc/arm-none-eabi/4.8/armv7-m/libgcc.a(_arm_addsubdf3.o)
 .debug_line    0x0000000000001311      0x1a0 /usr/lib/gcc/arm-none-eabi/4.8/armv7-m/libgcc.a(_arm_muldivdf3.o)
 .debug_line    0x00000000000014b1       0xbd /usr/lib/gcc/arm-none-eabi/4.8/armv7-m/libgcc.a(_arm_cmpdf2.o)
 .debug_line    0x000000000000156e       0x91 /usr/lib/gcc/arm-none-eabi/4.8/armv7-m/libgcc.a(_arm_truncdfsf2.o)
 .debug_line    0x00000000000015ff      0x11d /usr/lib/gcc/arm-none-eabi/4.8/armv7-m/libgcc.a(_arm_addsubsf3.o)
 .debug_line    0x000000000000171c      0x140 /usr/lib/gcc/arm-none-eabi/4.8/armv7-m/libgcc.a(_arm_muldivsf3.o)
 .debug_line    0x000000000000185c       0x7d /usr/lib/gcc/arm-none-eabi/4.8/armv7-m/libgcc.a(_arm_fixsfsi.o)
 .debug_line    0x00000000000018d9       0x68 /usr/lib/gcc/arm-none-eabi/4.8/armv7-m/libgcc.a(_aeabi_uldivmod.o)
 .debug_line    0x0000000000001941       0x68 /usr/lib/gcc/arm-none-eabi/4.8/armv7-m/libgcc.a(bpabi.o)
 .debug_line    0x00000000000019a9       0x64 /usr/lib/gcc/arm-none-eabi/4.8/armv7-m/libgcc.a(_dvmd_tls.o)
 .debug_line    0x0000000000001a0d       0xeb /usr/lib/gcc/arm-none-eabi/4.8/armv7-m/libgcc.a(_divdi3.o)
 .debug_line    0x0000000000001af8       0xf5 /usr/lib/gcc/arm-none-eabi/4.8/armv7-m/libgcc.a(_udivdi3.o)
 .debug_line    0x0000000000001bed      0x110 /usr/lib/gcc/arm-none-eabi/4.8/../../../arm-none-eabi/lib/armv7-m/libc.a(lib_a-errno.o)
 .debug_line    0x0000000000001cfd       0xf5 /usr/lib/gcc/arm-none-eabi/4.8/../../../arm-none-eabi/lib/armv7-m/libc.a(lib_a-impure.o)
 .debug_line    0x0000000000001df2      0x117 /usr/lib/gcc/arm-none-eabi/4.8/../../../arm-none-eabi/lib/armv7-m/libc.a(lib_a-memcmp.o)
 .debug_line    0x0000000000001f09       0xbb /usr/lib/gcc/arm-none-eabi/4.8/../../../arm-none-eabi/lib/armv7-m/libc.a(lib_a-memcpy.o)
 .debug_line    0x0000000000001fc4      0x133 /usr/lib/gcc/arm-none-eabi/4.8/../../../arm-none-eabi/lib/armv7-m/libc.a(lib_a-memmove.o)
 .debug_line    0x00000000000020f7      0x127 /usr/lib/gcc/arm-none-eabi/4.8/../../../arm-none-eabi/lib/armv7-m/libc.a(lib_a-memset.o)
 .debug_line    0x000000000000221e       0xf6 /usr/lib/gcc/arm-none-eabi/4.8/../../../arm-none-eabi/lib/armv7-m/libc.a(lib_a-strlen.o)

.debug_str      0x0000000000000000      0xfc9
 .debug_str     0x0000000000000000      0x184 /usr/lib/gcc/arm-none-eabi/4.8/../../../arm-none-eabi/lib/armv7-m/libm.a(lib_a-w_exp2.o)
                                        0x1ca (size before relaxing)
 .debug_str     0x0000000000000184       0xde /usr/lib/gcc/arm-none-eabi/4.8/../../../arm-none-eabi/lib/armv7-m/libm.a(lib_a-w_pow.o)
                                        0x27c (size before relaxing)
 .debug_str     0x0000000000000262       0xde /usr/lib/gcc/arm-none-eabi/4.8/../../../arm-none-eabi/lib/armv7-m/libm.a(lib_a-e_pow.o)
                                        0x28b (size before relaxing)
 .debug_str     0x0000000000000340       0x31 /usr/lib/gcc/arm-none-eabi/4.8/../../../arm-none-eabi/lib/armv7-m/libm.a(lib_a-e_sqrt.o)
                                        0x220 (size before relaxing)
 .debug_str     0x0000000000000371       0x31 /usr/lib/gcc/arm-none-eabi/4.8/../../../arm-none-eabi/lib/armv7-m/libm.a(lib_a-s_fabs.o)
                                        0x202 (size before relaxing)
 .debug_str     0x00000000000003a2       0x9b /usr/lib/gcc/arm-none-eabi/4.8/../../../arm-none-eabi/lib/armv7-m/libm.a(lib_a-s_finite.o)
                                        0x1e7 (size before relaxing)
 .debug_str     0x000000000000043d       0x34 /usr/lib/gcc/arm-none-eabi/4.8/../../../arm-none-eabi/lib/armv7-m/libm.a(lib_a-s_fpclassify.o)
                                        0x1e8 (size before relaxing)
 .debug_str     0x0000000000000471       0x31 /usr/lib/gcc/arm-none-eabi/4.8/../../../arm-none-eabi/lib/armv7-m/libm.a(lib_a-s_lib_ver.o)
                                        0x227 (size before relaxing)
 .debug_str     0x00000000000004a2       0x31 /usr/lib/gcc/arm-none-eabi/4.8/../../../arm-none-eabi/lib/armv7-m/libm.a(lib_a-s_matherr.o)
                                        0x1f9 (size before relaxing)
 .debug_str     0x00000000000004d3       0x2d /usr/lib/gcc/arm-none-eabi/4.8/../../../arm-none-eabi/lib/armv7-m/libm.a(lib_a-s_nan.o)
                                        0x1cf (size before relaxing)
 .debug_str     0x0000000000000500       0xac /usr/lib/gcc/arm-none-eabi/4.8/../../../arm-none-eabi/lib/armv7-m/libm.a(lib_a-s_rint.o)
                                        0x228 (size before relaxing)
 .debug_str     0x00000000000005ac       0x46 /usr/lib/gcc/arm-none-eabi/4.8/../../../arm-none-eabi/lib/armv7-m/libm.a(lib_a-s_scalbn.o)
                                        0x239 (size before relaxing)
 .debug_str     0x00000000000005f2       0x32 /usr/lib/gcc/arm-none-eabi/4.8/../../../arm-none-eabi/lib/armv7-m/libm.a(lib_a-s_copysign.o)
                                        0x209 (size before relaxing)
 .debug_str     0x0000000000000624      0x17d /usr/lib/gcc/arm-none-eabi/4.8/armv7-m/libgcc.a(bpabi.o)
                                        0x1a2 (size before relaxing)
 .debug_str     0x00000000000007a1      0x134 /usr/lib/gcc/arm-none-eabi/4.8/armv7-m/libgcc.a(_divdi3.o)
                                        0x250 (size before relaxing)
 .debug_str     0x00000000000008d5      0x251 /usr/lib/gcc/arm-none-eabi/4.8/armv7-m/libgcc.a(_udivdi3.o)
 .debug_str     0x00000000000008d5      0x439 /usr/lib/gcc/arm-none-eabi/4.8/../../../arm-none-eabi/lib/armv7-m/libc.a(lib_a-errno.o)
                                        0x577 (size before relaxing)
 .debug_str     0x0000000000000d0e       0xb6 /usr/lib/gcc/arm-none-eabi/4.8/../../../arm-none-eabi/lib/armv7-m/libc.a(lib_a-impure.o)
                                        0x58f (size before relaxing)
 .debug_str     0x0000000000000dc4       0xa7 /usr/lib/gcc/arm-none-eabi/4.8/../../../arm-none-eabi/lib/armv7-m/libc.a(lib_a-memcmp.o)
                                        0x1be (size before relaxing)
 .debug_str     0x0000000000000e6b       0x68 /usr/lib/gcc/arm-none-eabi/4.8/../../../arm-none-eabi/lib/armv7-m/libc.a(lib_a-memmove.o)
                                        0x1f1 (size before relaxing)
 .debug_str     0x0000000000000ed3       0x49 /usr/lib/gcc/arm-none-eabi/4.8/../../../arm-none-eabi/lib/armv7-m/libc.a(lib_a-memset.o)
                                        0x1d2 (size before relaxing)
 .debug_str     0x0000000000000f1c       0xad /usr/lib/gcc/arm-none-eabi/4.8/../../../arm-none-eabi/lib/armv7-m/libc.a(lib_a-strlen.o)
                                        0x1cb (size before relaxing)

.debug_frame    0x0000000000000000      0x37c
 .debug_frame   0x0000000000000000       0x20 /usr/lib/gcc/arm-none-eabi/4.8/../../../arm-none-eabi/lib/armv7-m/libm.a(lib_a-w_exp2.o)
 .debug_frame   0x0000000000000020       0x38 /usr/lib/gcc/arm-none-eabi/4.8/../../../arm-none-eabi/lib/armv7-m/libm.a(lib_a-w_pow.o)
 .debug_frame   0x0000000000000058       0x38 /usr/lib/gcc/arm-none-eabi/4.8/../../../arm-none-eabi/lib/armv7-m/libm.a(lib_a-e_pow.o)
 .debug_frame   0x0000000000000090       0x34 /usr/lib/gcc/arm-none-eabi/4.8/../../../arm-none-eabi/lib/armv7-m/libm.a(lib_a-e_sqrt.o)
 .debug_frame   0x00000000000000c4       0x20 /usr/lib/gcc/arm-none-eabi/4.8/../../../arm-none-eabi/lib/armv7-m/libm.a(lib_a-s_fabs.o)
 .debug_frame   0x00000000000000e4       0x20 /usr/lib/gcc/arm-none-eabi/4.8/../../../arm-none-eabi/lib/armv7-m/libm.a(lib_a-s_finite.o)
 .debug_frame   0x0000000000000104       0x28 /usr/lib/gcc/arm-none-eabi/4.8/../../../arm-none-eabi/lib/armv7-m/libm.a(lib_a-s_fpclassify.o)
 .debug_frame   0x000000000000012c       0x20 /usr/lib/gcc/arm-none-eabi/4.8/../../../arm-none-eabi/lib/armv7-m/libm.a(lib_a-s_matherr.o)
 .debug_frame   0x000000000000014c       0x20 /usr/lib/gcc/arm-none-eabi/4.8/../../../arm-none-eabi/lib/armv7-m/libm.a(lib_a-s_nan.o)
 .debug_frame   0x000000000000016c       0x34 /usr/lib/gcc/arm-none-eabi/4.8/../../../arm-none-eabi/lib/armv7-m/libm.a(lib_a-s_rint.o)
 .debug_frame   0x00000000000001a0       0x30 /usr/lib/gcc/arm-none-eabi/4.8/../../../arm-none-eabi/lib/armv7-m/libm.a(lib_a-s_scalbn.o)
 .debug_frame   0x00000000000001d0       0x28 /usr/lib/gcc/arm-none-eabi/4.8/../../../arm-none-eabi/lib/armv7-m/libm.a(lib_a-s_copysign.o)
 .debug_frame   0x00000000000001f8       0x58 /usr/lib/gcc/arm-none-eabi/4.8/armv7-m/libgcc.a(bpabi.o)
 .debug_frame   0x0000000000000250       0x34 /usr/lib/gcc/arm-none-eabi/4.8/armv7-m/libgcc.a(_divdi3.o)
 .debug_frame   0x0000000000000284       0x34 /usr/lib/gcc/arm-none-eabi/4.8/armv7-m/libgcc.a(_udivdi3.o)
 .debug_frame   0x00000000000002b8       0x20 /usr/lib/gcc/arm-none-eabi/4.8/../../../arm-none-eabi/lib/armv7-m/libc.a(lib_a-errno.o)
 .debug_frame   0x00000000000002d8       0x2c /usr/lib/gcc/arm-none-eabi/4.8/../../../arm-none-eabi/lib/armv7-m/libc.a(lib_a-memcmp.o)
 .debug_frame   0x0000000000000304       0x2c /usr/lib/gcc/arm-none-eabi/4.8/../../../arm-none-eabi/lib/armv7-m/libc.a(lib_a-memmove.o)
 .debug_frame   0x0000000000000330       0x2c /usr/lib/gcc/arm-none-eabi/4.8/../../../arm-none-eabi/lib/armv7-m/libc.a(lib_a-memset.o)
 .debug_frame   0x000000000000035c       0x20 /usr/lib/gcc/arm-none-eabi/4.8/../../../arm-none-eabi/lib/armv7-m/libc.a(lib_a-strlen.o)

Cross Reference Table

Symbol                                            File
AONIntHandler                                     obj_srf06-cc26xx/startup_gcc.o
AONProgIntHandler                                 obj_srf06-cc26xx/startup_gcc.o
AONRTCIntHandler                                  contiki-srf06-cc26xx.a(soc-rtc.o)
                                                  obj_srf06-cc26xx/startup_gcc.o
AUXADCIntHandler                                  obj_srf06-cc26xx/startup_gcc.o
AUXCombEventIntHandler                            obj_srf06-cc26xx/startup_gcc.o
AUXCompAIntHandler                                obj_srf06-cc26xx/startup_gcc.o
AUXSWEvent0IntHandler                             obj_srf06-cc26xx/startup_gcc.o
AUXSWEvent1IntHandler                             obj_srf06-cc26xx/startup_gcc.o
BusFaultIntHandler                                obj_srf06-cc26xx/startup_gcc.o
CryptoIntHandler                                  obj_srf06-cc26xx/startup_gcc.o
DebugMonIntHandler                                obj_srf06-cc26xx/startup_gcc.o
DynProgIntHandler                                 obj_srf06-cc26xx/startup_gcc.o
FaultISR                                          obj_srf06-cc26xx/fault-handlers.o
FlashIntHandler                                   obj_srf06-cc26xx/startup_gcc.o
GPIOIntHandler                                    contiki-srf06-cc26xx.a(gpio-interrupt.)
                                                  obj_srf06-cc26xx/startup_gcc.o
I2CIntHandler                                     obj_srf06-cc26xx/startup_gcc.o
I2SIntHandler                                     obj_srf06-cc26xx/startup_gcc.o
MPUFaultIntHandler                                obj_srf06-cc26xx/startup_gcc.o
NOROM_AONBatMonTemperatureGetDegC                 contiki-srf06-cc26xx.a(aon_batmon.o)
                                                  contiki-srf06-cc26xx.a(sys_ctrl.o)
                                                  contiki-srf06-cc26xx.a(osc.o)
NOROM_AONRTCCurrent64BitValueGet                  contiki-srf06-cc26xx.a(aon_rtc.o)
NOROM_AONRTCCurrentCompareValueGet                contiki-srf06-cc26xx.a(aon_rtc.o)
                                                  contiki-srf06-cc26xx.a(osc.o)
                                                  contiki-srf06-cc26xx.a(soc-rtc.o)
                                                  contiki-srf06-cc26xx.a(rtimer-arch.o)
NOROM_CPUbasepriGet                               contiki-srf06-cc26xx.a(cpu.o)
NOROM_CPUcpsid                                    contiki-srf06-cc26xx.a(cpu.o)
                                                  contiki-srf06-cc26xx.a(rf-ble.o)
                                                  contiki-srf06-cc26xx.a(rf-core.o)
                                                  contiki-srf06-cc26xx.a(aux-ctrl.o)
                                                  contiki-srf06-cc26xx.a(ddi.o)
                                                  contiki-srf06-cc26xx.a(adi.o)
                                                  contiki-srf06-cc26xx.a(soc-trng.o)
                                                  contiki-srf06-cc26xx.a(ieee-mode.o)
                                                  contiki-srf06-cc26xx.a(gpio-interrupt.)
                                                  contiki-srf06-cc26xx.a(lpm.o)
                                                  contiki-srf06-cc26xx.a(cc26xx-uart.o)
                                                  contiki-srf06-cc26xx.a(contiki-watchdo)
                                                  contiki-srf06-cc26xx.a(soc-rtc.o)
                                                  contiki-srf06-cc26xx.a(clock.o)
                                                  contiki-srf06-cc26xx.a(board.o)
                                                  contiki-srf06-cc26xx.a(contiki-main.o)
NOROM_CPUcpsie                                    contiki-srf06-cc26xx.a(cpu.o)
                                                  contiki-srf06-cc26xx.a(rf-ble.o)
                                                  contiki-srf06-cc26xx.a(rf-core.o)
                                                  contiki-srf06-cc26xx.a(aux-ctrl.o)
                                                  contiki-srf06-cc26xx.a(ddi.o)
                                                  contiki-srf06-cc26xx.a(adi.o)
                                                  contiki-srf06-cc26xx.a(soc-trng.o)
                                                  contiki-srf06-cc26xx.a(ieee-mode.o)
                                                  contiki-srf06-cc26xx.a(gpio-interrupt.)
                                                  contiki-srf06-cc26xx.a(lpm.o)
                                                  contiki-srf06-cc26xx.a(cc26xx-uart.o)
                                                  contiki-srf06-cc26xx.a(contiki-watchdo)
                                                  contiki-srf06-cc26xx.a(soc-rtc.o)
                                                  contiki-srf06-cc26xx.a(clock.o)
                                                  contiki-srf06-cc26xx.a(board.o)
                                                  contiki-srf06-cc26xx.a(contiki-main.o)
NOROM_CPUdelay                                    contiki-srf06-cc26xx.a(cpu.o)
                                                  contiki-srf06-cc26xx.a(board-i2c.o)
                                                  contiki-srf06-cc26xx.a(mpu-9250-sensor)
NOROM_CPUprimask                                  contiki-srf06-cc26xx.a(cpu.o)
NOROM_ChipInfo_GetChipFamily                      contiki-srf06-cc26xx.a(chipinfo.o)
                                                  contiki-srf06-cc26xx.a(contiki-main.o)
NOROM_ChipInfo_GetChipType                        contiki-srf06-cc26xx.a(chipinfo.o)
                                                  contiki-srf06-cc26xx.a(rf-core.o)
NOROM_ChipInfo_GetHwRevision                      contiki-srf06-cc26xx.a(chipinfo.o)
NOROM_ChipInfo_GetPackageType                     contiki-srf06-cc26xx.a(chipinfo.o)
NOROM_ChipInfo_GetSupportedProtocol_BV            contiki-srf06-cc26xx.a(chipinfo.o)
                                                  contiki-srf06-cc26xx.a(contiki-main.o)
NOROM_DDI16BitRead                                contiki-srf06-cc26xx.a(ddi.o)
NOROM_DDI16BitWrite                               contiki-srf06-cc26xx.a(ddi.o)
NOROM_DDI16BitfieldRead                           contiki-srf06-cc26xx.a(ddi.o)
                                                  contiki-srf06-cc26xx.a(osc.o)
NOROM_DDI16BitfieldWrite                          contiki-srf06-cc26xx.a(ddi.o)
                                                  contiki-srf06-cc26xx.a(setup_rom.o)
                                                  contiki-srf06-cc26xx.a(osc.o)
                                                  contiki-srf06-cc26xx.a(oscillators.o)
NOROM_DDI32RegWrite                               contiki-srf06-cc26xx.a(ddi.o)
                                                  contiki-srf06-cc26xx.a(setup_rom.o)
NOROM_OSCClockSourceGet                           contiki-srf06-cc26xx.a(osc.o)
                                                  contiki-srf06-cc26xx.a(setup_rom.o)
                                                  contiki-srf06-cc26xx.a(sys_ctrl.o)
                                                  contiki-srf06-cc26xx.a(oscillators.o)
NOROM_OSCClockSourceSet                           contiki-srf06-cc26xx.a(osc.o)
                                                  contiki-srf06-cc26xx.a(setup_rom.o)
                                                  contiki-srf06-cc26xx.a(sys_ctrl.o)
                                                  contiki-srf06-cc26xx.a(oscillators.o)
NOROM_OSCHF_AttemptToSwitchToXosc                 contiki-srf06-cc26xx.a(osc.o)
NOROM_OSCHF_DebugGetCrystalAmplitude              contiki-srf06-cc26xx.a(osc.o)
NOROM_OSCHF_DebugGetExpectedAverageCrystalAmplitude contiki-srf06-cc26xx.a(osc.o)
NOROM_OSCHF_GetStartupTime                        contiki-srf06-cc26xx.a(osc.o)
NOROM_OSCHF_SwitchToRcOscTurnOffXosc              contiki-srf06-cc26xx.a(osc.o)
NOROM_OSCHF_TurnOnXosc                            contiki-srf06-cc26xx.a(osc.o)
NOROM_OSC_HPOSCRelativeFrequencyOffsetGet         contiki-srf06-cc26xx.a(osc.o)
NOROM_OSC_HPOSCRelativeFrequencyOffsetToRFCoreFormatConvert contiki-srf06-cc26xx.a(osc.o)
NOROM_PowerCtrlSourceSet                          contiki-srf06-cc26xx.a(pwr_ctrl.o)
                                                  contiki-srf06-cc26xx.a(lpm.o)
NOROM_SetupAfterColdResetWakeupFromShutDownCfg1   contiki-srf06-cc26xx.a(setup_rom.o)
                                                  contiki-srf06-cc26xx.a(setup.o)
NOROM_SetupAfterColdResetWakeupFromShutDownCfg2   contiki-srf06-cc26xx.a(setup_rom.o)
                                                  contiki-srf06-cc26xx.a(setup.o)
NOROM_SetupAfterColdResetWakeupFromShutDownCfg3   contiki-srf06-cc26xx.a(setup_rom.o)
                                                  contiki-srf06-cc26xx.a(setup.o)
NOROM_SetupGetTrimForAdcShModeEn                  contiki-srf06-cc26xx.a(setup_rom.o)
NOROM_SetupGetTrimForAdcShVbufEn                  contiki-srf06-cc26xx.a(setup_rom.o)
NOROM_SetupGetTrimForAmpcompCtrl                  contiki-srf06-cc26xx.a(setup_rom.o)
NOROM_SetupGetTrimForAmpcompTh1                   contiki-srf06-cc26xx.a(setup_rom.o)
NOROM_SetupGetTrimForAmpcompTh2                   contiki-srf06-cc26xx.a(setup_rom.o)
NOROM_SetupGetTrimForAnabypassValue1              contiki-srf06-cc26xx.a(setup_rom.o)
NOROM_SetupGetTrimForDblrLoopFilterResetVoltage   contiki-srf06-cc26xx.a(setup_rom.o)
NOROM_SetupGetTrimForRadcExtCfg                   contiki-srf06-cc26xx.a(setup_rom.o)
NOROM_SetupGetTrimForRcOscLfIBiasTrim             contiki-srf06-cc26xx.a(setup_rom.o)
NOROM_SetupGetTrimForRcOscLfRtuneCtuneTrim        contiki-srf06-cc26xx.a(setup_rom.o)
NOROM_SetupGetTrimForXoscHfCtl                    contiki-srf06-cc26xx.a(setup_rom.o)
NOROM_SetupGetTrimForXoscHfFastStart              contiki-srf06-cc26xx.a(setup_rom.o)
NOROM_SetupGetTrimForXoscHfIbiastherm             contiki-srf06-cc26xx.a(setup_rom.o)
NOROM_SetupGetTrimForXoscLfRegulatorAndCmirrwrRatio contiki-srf06-cc26xx.a(setup_rom.o)
NOROM_SetupSetAonRtcSubSecInc                     contiki-srf06-cc26xx.a(setup_rom.o)
NOROM_SetupSetCacheModeAccordingToCcfgSetting     contiki-srf06-cc26xx.a(setup_rom.o)
                                                  contiki-srf06-cc26xx.a(setup.o)
NOROM_SetupTrimDevice                             contiki-srf06-cc26xx.a(setup.o)
                                                  obj_srf06-cc26xx/startup_gcc.o
NOROM_SysCtrlAdjustRechargeAfterPowerDown         contiki-srf06-cc26xx.a(sys_ctrl.o)
                                                  contiki-srf06-cc26xx.a(lpm.o)
NOROM_SysCtrlPowerEverything                      contiki-srf06-cc26xx.a(sys_ctrl.o)
NOROM_SysCtrlResetSourceGet                       contiki-srf06-cc26xx.a(sys_ctrl.o)
NOROM_SysCtrlSetRechargeBeforePowerDown           contiki-srf06-cc26xx.a(sys_ctrl.o)
                                                  contiki-srf06-cc26xx.a(lpm.o)
NOROM_SysCtrl_DCDC_VoltageConditionalControl      contiki-srf06-cc26xx.a(sys_ctrl.o)
                                                  contiki-srf06-cc26xx.a(lpm.o)
NOROM_TRNGConfigure                               contiki-srf06-cc26xx.a(trng.o)
                                                  contiki-srf06-cc26xx.a(soc-trng.o)
NOROM_TRNGNumberGet                               contiki-srf06-cc26xx.a(trng.o)
NOROM_ThisCodeIsBuiltForCC26xxHwRev22AndLater_HaltIfViolated contiki-srf06-cc26xx.a(chipinfo.o)
                                                  contiki-srf06-cc26xx.a(setup.o)
NmiSR                                             obj_srf06-cc26xx/startup_gcc.o
PendSVIntHandler                                  obj_srf06-cc26xx/startup_gcc.o
RFCCPE0IntHandler                                 contiki-srf06-cc26xx.a(rf-core.o)
                                                  obj_srf06-cc26xx/startup_gcc.o
RFCCPE1IntHandler                                 contiki-srf06-cc26xx.a(rf-core.o)
                                                  obj_srf06-cc26xx/startup_gcc.o
RFCCmdAckIntHandler                               obj_srf06-cc26xx/startup_gcc.o
RFCHardwareIntHandler                             obj_srf06-cc26xx/startup_gcc.o
ResetISR                                          obj_srf06-cc26xx/startup_gcc.o
SSI0IntHandler                                    obj_srf06-cc26xx/startup_gcc.o
SSI1IntHandler                                    obj_srf06-cc26xx/startup_gcc.o
SVCallIntHandler                                  obj_srf06-cc26xx/startup_gcc.o
SWEvent0IntHandler                                obj_srf06-cc26xx/startup_gcc.o
SafeHapiAuxAdiSelect                              contiki-srf06-cc26xx.a(adi.o)
SafeHapiVoid                                      contiki-srf06-cc26xx.a(adi.o)
                                                  contiki-srf06-cc26xx.a(sys_ctrl.o)
                                                  contiki-srf06-cc26xx.a(osc.o)
                                                  contiki-srf06-cc26xx.a(oscillators.o)
SysTickIntHandler                                 obj_srf06-cc26xx/startup_gcc.o
TRNGIntHandler                                    contiki-srf06-cc26xx.a(soc-trng.o)
                                                  obj_srf06-cc26xx/startup_gcc.o
Timer0AIntHandler                                 obj_srf06-cc26xx/startup_gcc.o
Timer0BIntHandler                                 obj_srf06-cc26xx/startup_gcc.o
Timer1AIntHandler                                 obj_srf06-cc26xx/startup_gcc.o
Timer1BIntHandler                                 obj_srf06-cc26xx/startup_gcc.o
Timer2AIntHandler                                 obj_srf06-cc26xx/startup_gcc.o
Timer2BIntHandler                                 obj_srf06-cc26xx/startup_gcc.o
Timer3AIntHandler                                 obj_srf06-cc26xx/startup_gcc.o
Timer3BIntHandler                                 obj_srf06-cc26xx/startup_gcc.o
UART0IntHandler                                   contiki-srf06-cc26xx.a(cc26xx-uart.o)
                                                  obj_srf06-cc26xx/startup_gcc.o
UsageFaultIntHandler                              obj_srf06-cc26xx/startup_gcc.o
WatchdogIntHandler                                obj_srf06-cc26xx/startup_gcc.o
__adddf3                                          /usr/lib/gcc/arm-none-eabi/4.8/armv7-m/libgcc.a(_arm_addsubdf3.o)
__addsf3                                          /usr/lib/gcc/arm-none-eabi/4.8/armv7-m/libgcc.a(_arm_addsubsf3.o)
__aeabi_cdcmpeq                                   /usr/lib/gcc/arm-none-eabi/4.8/armv7-m/libgcc.a(_arm_cmpdf2.o)
__aeabi_cdcmple                                   /usr/lib/gcc/arm-none-eabi/4.8/armv7-m/libgcc.a(_arm_cmpdf2.o)
__aeabi_cdrcmple                                  /usr/lib/gcc/arm-none-eabi/4.8/armv7-m/libgcc.a(_arm_cmpdf2.o)
__aeabi_d2f                                       /usr/lib/gcc/arm-none-eabi/4.8/armv7-m/libgcc.a(_arm_truncdfsf2.o)
                                                  contiki-srf06-cc26xx.a(mpu-9250-sensor)
                                                  contiki-srf06-cc26xx.a(hdc-1000-sensor)
                                                  contiki-srf06-cc26xx.a(opt-3001-sensor)
__aeabi_dadd                                      /usr/lib/gcc/arm-none-eabi/4.8/armv7-m/libgcc.a(_arm_addsubdf3.o)
                                                  /usr/lib/gcc/arm-none-eabi/4.8/../../../arm-none-eabi/lib/armv7-m/libm.a(lib_a-s_scalbn.o)
                                                  /usr/lib/gcc/arm-none-eabi/4.8/../../../arm-none-eabi/lib/armv7-m/libm.a(lib_a-s_rint.o)
                                                  /usr/lib/gcc/arm-none-eabi/4.8/../../../arm-none-eabi/lib/armv7-m/libm.a(lib_a-e_sqrt.o)
                                                  /usr/lib/gcc/arm-none-eabi/4.8/../../../arm-none-eabi/lib/armv7-m/libm.a(lib_a-e_pow.o)
__aeabi_dcmpeq                                    /usr/lib/gcc/arm-none-eabi/4.8/armv7-m/libgcc.a(_arm_cmpdf2.o)
                                                  /usr/lib/gcc/arm-none-eabi/4.8/../../../arm-none-eabi/lib/armv7-m/libm.a(lib_a-w_pow.o)
__aeabi_dcmpge                                    /usr/lib/gcc/arm-none-eabi/4.8/armv7-m/libgcc.a(_arm_cmpdf2.o)
__aeabi_dcmpgt                                    /usr/lib/gcc/arm-none-eabi/4.8/armv7-m/libgcc.a(_arm_cmpdf2.o)
                                                  /usr/lib/gcc/arm-none-eabi/4.8/../../../arm-none-eabi/lib/armv7-m/libm.a(lib_a-e_pow.o)
__aeabi_dcmple                                    /usr/lib/gcc/arm-none-eabi/4.8/armv7-m/libgcc.a(_arm_cmpdf2.o)
                                                  /usr/lib/gcc/arm-none-eabi/4.8/../../../arm-none-eabi/lib/armv7-m/libm.a(lib_a-e_pow.o)
__aeabi_dcmplt                                    /usr/lib/gcc/arm-none-eabi/4.8/armv7-m/libgcc.a(_arm_cmpdf2.o)
                                                  /usr/lib/gcc/arm-none-eabi/4.8/../../../arm-none-eabi/lib/armv7-m/libm.a(lib_a-w_pow.o)
__aeabi_ddiv                                      /usr/lib/gcc/arm-none-eabi/4.8/armv7-m/libgcc.a(_arm_muldivdf3.o)
                                                  /usr/lib/gcc/arm-none-eabi/4.8/../../../arm-none-eabi/lib/armv7-m/libm.a(lib_a-e_sqrt.o)
                                                  /usr/lib/gcc/arm-none-eabi/4.8/../../../arm-none-eabi/lib/armv7-m/libm.a(lib_a-e_pow.o)
                                                  /usr/lib/gcc/arm-none-eabi/4.8/../../../arm-none-eabi/lib/armv7-m/libm.a(lib_a-w_pow.o)
                                                  contiki-srf06-cc26xx.a(mpu-9250-sensor)
__aeabi_dmul                                      /usr/lib/gcc/arm-none-eabi/4.8/armv7-m/libgcc.a(_arm_muldivdf3.o)
                                                  /usr/lib/gcc/arm-none-eabi/4.8/../../../arm-none-eabi/lib/armv7-m/libm.a(lib_a-s_scalbn.o)
                                                  /usr/lib/gcc/arm-none-eabi/4.8/../../../arm-none-eabi/lib/armv7-m/libm.a(lib_a-e_sqrt.o)
                                                  /usr/lib/gcc/arm-none-eabi/4.8/../../../arm-none-eabi/lib/armv7-m/libm.a(lib_a-e_pow.o)
                                                  /usr/lib/gcc/arm-none-eabi/4.8/../../../arm-none-eabi/lib/armv7-m/libm.a(lib_a-w_pow.o)
                                                  contiki-srf06-cc26xx.a(mpu-9250-sensor)
                                                  contiki-srf06-cc26xx.a(hdc-1000-sensor)
                                                  contiki-srf06-cc26xx.a(opt-3001-sensor)
__aeabi_drsub                                     /usr/lib/gcc/arm-none-eabi/4.8/armv7-m/libgcc.a(_arm_addsubdf3.o)
__aeabi_dsub                                      /usr/lib/gcc/arm-none-eabi/4.8/armv7-m/libgcc.a(_arm_addsubdf3.o)
                                                  /usr/lib/gcc/arm-none-eabi/4.8/../../../arm-none-eabi/lib/armv7-m/libm.a(lib_a-s_rint.o)
                                                  /usr/lib/gcc/arm-none-eabi/4.8/../../../arm-none-eabi/lib/armv7-m/libm.a(lib_a-e_sqrt.o)
                                                  /usr/lib/gcc/arm-none-eabi/4.8/../../../arm-none-eabi/lib/armv7-m/libm.a(lib_a-e_pow.o)
                                                  contiki-srf06-cc26xx.a(hdc-1000-sensor)
__aeabi_f2d                                       /usr/lib/gcc/arm-none-eabi/4.8/armv7-m/libgcc.a(_arm_addsubdf3.o)
__aeabi_f2iz                                      /usr/lib/gcc/arm-none-eabi/4.8/armv7-m/libgcc.a(_arm_fixsfsi.o)
                                                  contiki-srf06-cc26xx.a(mpu-9250-sensor)
                                                  contiki-srf06-cc26xx.a(hdc-1000-sensor)
                                                  contiki-srf06-cc26xx.a(opt-3001-sensor)
                                                  contiki-srf06-cc26xx.a(tmp-007-sensor.)
__aeabi_fadd                                      /usr/lib/gcc/arm-none-eabi/4.8/armv7-m/libgcc.a(_arm_addsubsf3.o)
__aeabi_fdiv                                      /usr/lib/gcc/arm-none-eabi/4.8/armv7-m/libgcc.a(_arm_muldivsf3.o)
__aeabi_fmul                                      /usr/lib/gcc/arm-none-eabi/4.8/armv7-m/libgcc.a(_arm_muldivsf3.o)
                                                  contiki-srf06-cc26xx.a(mpu-9250-sensor)
                                                  contiki-srf06-cc26xx.a(hdc-1000-sensor)
                                                  contiki-srf06-cc26xx.a(opt-3001-sensor)
                                                  contiki-srf06-cc26xx.a(tmp-007-sensor.)
__aeabi_frsub                                     /usr/lib/gcc/arm-none-eabi/4.8/armv7-m/libgcc.a(_arm_addsubsf3.o)
__aeabi_fsub                                      /usr/lib/gcc/arm-none-eabi/4.8/armv7-m/libgcc.a(_arm_addsubsf3.o)
__aeabi_i2d                                       /usr/lib/gcc/arm-none-eabi/4.8/armv7-m/libgcc.a(_arm_addsubdf3.o)
                                                  /usr/lib/gcc/arm-none-eabi/4.8/../../../arm-none-eabi/lib/armv7-m/libm.a(lib_a-e_pow.o)
                                                  contiki-srf06-cc26xx.a(mpu-9250-sensor)
                                                  contiki-srf06-cc26xx.a(hdc-1000-sensor)
                                                  contiki-srf06-cc26xx.a(opt-3001-sensor)
__aeabi_i2f                                       /usr/lib/gcc/arm-none-eabi/4.8/armv7-m/libgcc.a(_arm_addsubsf3.o)
                                                  contiki-srf06-cc26xx.a(tmp-007-sensor.)
__aeabi_idiv0                                     /usr/lib/gcc/arm-none-eabi/4.8/armv7-m/libgcc.a(_dvmd_tls.o)
__aeabi_l2d                                       /usr/lib/gcc/arm-none-eabi/4.8/armv7-m/libgcc.a(_arm_addsubdf3.o)
__aeabi_l2f                                       /usr/lib/gcc/arm-none-eabi/4.8/armv7-m/libgcc.a(_arm_addsubsf3.o)
__aeabi_ldiv0                                     /usr/lib/gcc/arm-none-eabi/4.8/armv7-m/libgcc.a(_dvmd_tls.o)
                                                  /usr/lib/gcc/arm-none-eabi/4.8/armv7-m/libgcc.a(_aeabi_uldivmod.o)
__aeabi_ui2d                                      /usr/lib/gcc/arm-none-eabi/4.8/armv7-m/libgcc.a(_arm_addsubdf3.o)
                                                  contiki-srf06-cc26xx.a(hdc-1000-sensor)
                                                  contiki-srf06-cc26xx.a(opt-3001-sensor)
__aeabi_ui2f                                      /usr/lib/gcc/arm-none-eabi/4.8/armv7-m/libgcc.a(_arm_addsubsf3.o)
__aeabi_ul2d                                      /usr/lib/gcc/arm-none-eabi/4.8/armv7-m/libgcc.a(_arm_addsubdf3.o)
__aeabi_ul2f                                      /usr/lib/gcc/arm-none-eabi/4.8/armv7-m/libgcc.a(_arm_addsubsf3.o)
__aeabi_uldivmod                                  /usr/lib/gcc/arm-none-eabi/4.8/armv7-m/libgcc.a(_aeabi_uldivmod.o)
                                                  contiki-srf06-cc26xx.a(strformat.o)
                                                  contiki-srf06-cc26xx.a(ieee-mode.o)
__ccfg                                            obj_srf06-cc26xx/ccfg.o
__cmpdf2                                          /usr/lib/gcc/arm-none-eabi/4.8/armv7-m/libgcc.a(_arm_cmpdf2.o)
__divdf3                                          /usr/lib/gcc/arm-none-eabi/4.8/armv7-m/libgcc.a(_arm_muldivdf3.o)
__divdi3                                          /usr/lib/gcc/arm-none-eabi/4.8/armv7-m/libgcc.a(_divdi3.o)
                                                  /usr/lib/gcc/arm-none-eabi/4.8/armv7-m/libgcc.a(bpabi.o)
__divsf3                                          /usr/lib/gcc/arm-none-eabi/4.8/armv7-m/libgcc.a(_arm_muldivsf3.o)
__eqdf2                                           /usr/lib/gcc/arm-none-eabi/4.8/armv7-m/libgcc.a(_arm_cmpdf2.o)
__errno                                           /usr/lib/gcc/arm-none-eabi/4.8/../../../arm-none-eabi/lib/armv7-m/libc.a(lib_a-errno.o)
                                                  /usr/lib/gcc/arm-none-eabi/4.8/../../../arm-none-eabi/lib/armv7-m/libm.a(lib_a-w_pow.o)
__extendsfdf2                                     /usr/lib/gcc/arm-none-eabi/4.8/armv7-m/libgcc.a(_arm_addsubdf3.o)
__fdlib_version                                   /usr/lib/gcc/arm-none-eabi/4.8/../../../arm-none-eabi/lib/armv7-m/libm.a(lib_a-s_lib_ver.o)
                                                  /usr/lib/gcc/arm-none-eabi/4.8/../../../arm-none-eabi/lib/armv7-m/libm.a(lib_a-w_pow.o)
__fixsfsi                                         /usr/lib/gcc/arm-none-eabi/4.8/armv7-m/libgcc.a(_arm_fixsfsi.o)
__floatdidf                                       /usr/lib/gcc/arm-none-eabi/4.8/armv7-m/libgcc.a(_arm_addsubdf3.o)
__floatdisf                                       /usr/lib/gcc/arm-none-eabi/4.8/armv7-m/libgcc.a(_arm_addsubsf3.o)
__floatsidf                                       /usr/lib/gcc/arm-none-eabi/4.8/armv7-m/libgcc.a(_arm_addsubdf3.o)
__floatsisf                                       /usr/lib/gcc/arm-none-eabi/4.8/armv7-m/libgcc.a(_arm_addsubsf3.o)
__floatundidf                                     /usr/lib/gcc/arm-none-eabi/4.8/armv7-m/libgcc.a(_arm_addsubdf3.o)
__floatundisf                                     /usr/lib/gcc/arm-none-eabi/4.8/armv7-m/libgcc.a(_arm_addsubsf3.o)
__floatunsidf                                     /usr/lib/gcc/arm-none-eabi/4.8/armv7-m/libgcc.a(_arm_addsubdf3.o)
__floatunsisf                                     /usr/lib/gcc/arm-none-eabi/4.8/armv7-m/libgcc.a(_arm_addsubsf3.o)
__fpclassifyd                                     /usr/lib/gcc/arm-none-eabi/4.8/../../../arm-none-eabi/lib/armv7-m/libm.a(lib_a-s_fpclassify.o)
                                                  /usr/lib/gcc/arm-none-eabi/4.8/../../../arm-none-eabi/lib/armv7-m/libm.a(lib_a-w_pow.o)
__gedf2                                           /usr/lib/gcc/arm-none-eabi/4.8/armv7-m/libgcc.a(_arm_cmpdf2.o)
__gnu_ldivmod_helper                              /usr/lib/gcc/arm-none-eabi/4.8/armv7-m/libgcc.a(bpabi.o)
__gnu_uldivmod_helper                             /usr/lib/gcc/arm-none-eabi/4.8/armv7-m/libgcc.a(bpabi.o)
                                                  /usr/lib/gcc/arm-none-eabi/4.8/armv7-m/libgcc.a(_aeabi_uldivmod.o)
__gtdf2                                           /usr/lib/gcc/arm-none-eabi/4.8/armv7-m/libgcc.a(_arm_cmpdf2.o)
__ieee754_pow                                     /usr/lib/gcc/arm-none-eabi/4.8/../../../arm-none-eabi/lib/armv7-m/libm.a(lib_a-e_pow.o)
                                                  /usr/lib/gcc/arm-none-eabi/4.8/../../../arm-none-eabi/lib/armv7-m/libm.a(lib_a-w_pow.o)
__ieee754_sqrt                                    /usr/lib/gcc/arm-none-eabi/4.8/../../../arm-none-eabi/lib/armv7-m/libm.a(lib_a-e_sqrt.o)
                                                  /usr/lib/gcc/arm-none-eabi/4.8/../../../arm-none-eabi/lib/armv7-m/libm.a(lib_a-e_pow.o)
__ledf2                                           /usr/lib/gcc/arm-none-eabi/4.8/armv7-m/libgcc.a(_arm_cmpdf2.o)
__ltdf2                                           /usr/lib/gcc/arm-none-eabi/4.8/armv7-m/libgcc.a(_arm_cmpdf2.o)
__muldf3                                          /usr/lib/gcc/arm-none-eabi/4.8/armv7-m/libgcc.a(_arm_muldivdf3.o)
__mulsf3                                          /usr/lib/gcc/arm-none-eabi/4.8/armv7-m/libgcc.a(_arm_muldivsf3.o)
__nedf2                                           /usr/lib/gcc/arm-none-eabi/4.8/armv7-m/libgcc.a(_arm_cmpdf2.o)
__subdf3                                          /usr/lib/gcc/arm-none-eabi/4.8/armv7-m/libgcc.a(_arm_addsubdf3.o)
__subsf3                                          /usr/lib/gcc/arm-none-eabi/4.8/armv7-m/libgcc.a(_arm_addsubsf3.o)
__truncdfsf2                                      /usr/lib/gcc/arm-none-eabi/4.8/armv7-m/libgcc.a(_arm_truncdfsf2.o)
__udivdi3                                         /usr/lib/gcc/arm-none-eabi/4.8/armv7-m/libgcc.a(_udivdi3.o)
                                                  /usr/lib/gcc/arm-none-eabi/4.8/armv7-m/libgcc.a(bpabi.o)
_bss                                              obj_srf06-cc26xx/startup_gcc.o
_data                                             obj_srf06-cc26xx/startup_gcc.o
_ebss                                             obj_srf06-cc26xx/startup_gcc.o
_edata                                            obj_srf06-cc26xx/startup_gcc.o
_estack                                           obj_srf06-cc26xx/startup_gcc.o
_etext                                            obj_srf06-cc26xx/startup_gcc.o
_global_impure_ptr                                /usr/lib/gcc/arm-none-eabi/4.8/../../../arm-none-eabi/lib/armv7-m/libc.a(lib_a-impure.o)
_impure_ptr                                       /usr/lib/gcc/arm-none-eabi/4.8/../../../arm-none-eabi/lib/armv7-m/libc.a(lib_a-impure.o)
                                                  /usr/lib/gcc/arm-none-eabi/4.8/../../../arm-none-eabi/lib/armv7-m/libc.a(lib_a-errno.o)
autostart_exit                                    contiki-srf06-cc26xx.a(autostart.o)
autostart_processes                               border-router.co
                                                  contiki-srf06-cc26xx.a(contiki-main.o)
autostart_start                                   contiki-srf06-cc26xx.a(autostart.o)
                                                  contiki-srf06-cc26xx.a(contiki-main.o)
aux_ctrl_power_down                               contiki-srf06-cc26xx.a(aux-ctrl.o)
                                                  contiki-srf06-cc26xx.a(lpm.o)
aux_ctrl_power_up                                 contiki-srf06-cc26xx.a(aux-ctrl.o)
                                                  contiki-srf06-cc26xx.a(lpm.o)
aux_ctrl_register_consumer                        contiki-srf06-cc26xx.a(aux-ctrl.o)
                                                  contiki-srf06-cc26xx.a(oscillators.o)
                                                  contiki-srf06-cc26xx.a(lpm.o)
aux_ctrl_unregister_consumer                      contiki-srf06-cc26xx.a(aux-ctrl.o)
                                                  contiki-srf06-cc26xx.a(oscillators.o)
bmp_280_sensor                                    contiki-srf06-cc26xx.a(bmp-280-sensor.)
                                                  contiki-srf06-cc26xx.a(board.o)
                                                  contiki-srf06-cc26xx.a(sensortag-senso)
board_i2c_read                                    contiki-srf06-cc26xx.a(board-i2c.o)
                                                  contiki-srf06-cc26xx.a(hdc-1000-sensor)
board_i2c_select                                  contiki-srf06-cc26xx.a(board-i2c.o)
                                                  contiki-srf06-cc26xx.a(mpu-9250-sensor)
                                                  contiki-srf06-cc26xx.a(hdc-1000-sensor)
                                                  contiki-srf06-cc26xx.a(opt-3001-sensor)
                                                  contiki-srf06-cc26xx.a(tmp-007-sensor.)
                                                  contiki-srf06-cc26xx.a(bmp-280-sensor.)
board_i2c_shutdown                                contiki-srf06-cc26xx.a(board-i2c.o)
                                                  contiki-srf06-cc26xx.a(board.o)
board_i2c_wakeup                                  contiki-srf06-cc26xx.a(board-i2c.o)
                                                  contiki-srf06-cc26xx.a(board.o)
board_i2c_write                                   contiki-srf06-cc26xx.a(board-i2c.o)
                                                  contiki-srf06-cc26xx.a(sensor-common.o)
board_i2c_write_read                              contiki-srf06-cc26xx.a(board-i2c.o)
                                                  contiki-srf06-cc26xx.a(sensor-common.o)
board_i2c_write_single                            contiki-srf06-cc26xx.a(board-i2c.o)
                                                  contiki-srf06-cc26xx.a(hdc-1000-sensor)
board_init                                        contiki-srf06-cc26xx.a(board.o)
                                                  contiki-srf06-cc26xx.a(contiki-main.o)
board_spi_close                                   contiki-srf06-cc26xx.a(board-spi.o)
                                                  contiki-srf06-cc26xx.a(ext-flash.o)
board_spi_flush                                   contiki-srf06-cc26xx.a(board-spi.o)
                                                  contiki-srf06-cc26xx.a(ext-flash.o)
board_spi_open                                    contiki-srf06-cc26xx.a(board-spi.o)
                                                  contiki-srf06-cc26xx.a(ext-flash.o)
board_spi_read                                    contiki-srf06-cc26xx.a(board-spi.o)
                                                  contiki-srf06-cc26xx.a(ext-flash.o)
board_spi_write                                   contiki-srf06-cc26xx.a(board-spi.o)
                                                  contiki-srf06-cc26xx.a(ext-flash.o)
border_router_process                             border-router.co
button_left_sensor                                contiki-srf06-cc26xx.a(button-sensor.o)
                                                  contiki-srf06-cc26xx.a(sensortag-senso)
                                                  border-router.co
button_right_sensor                               contiki-srf06-cc26xx.a(button-sensor.o)
                                                  contiki-srf06-cc26xx.a(sensortag-senso)
buzzer_init                                       contiki-srf06-cc26xx.a(buzzer.o)
                                                  contiki-srf06-cc26xx.a(board.o)
buzzer_start                                      contiki-srf06-cc26xx.a(buzzer.o)
buzzer_state                                      contiki-srf06-cc26xx.a(buzzer.o)
buzzer_stop                                       contiki-srf06-cc26xx.a(buzzer.o)
                                                  contiki-srf06-cc26xx.a(board.o)
cc26xx_uart_busy                                  contiki-srf06-cc26xx.a(cc26xx-uart.o)
                                                  contiki-srf06-cc26xx.a(putchar.o)
cc26xx_uart_init                                  contiki-srf06-cc26xx.a(cc26xx-uart.o)
                                                  contiki-srf06-cc26xx.a(contiki-main.o)
cc26xx_uart_set_input                             contiki-srf06-cc26xx.a(cc26xx-uart.o)
                                                  contiki-srf06-cc26xx.a(slip-arch.o)
cc26xx_uart_write_byte                            contiki-srf06-cc26xx.a(cc26xx-uart.o)
                                                  contiki-srf06-cc26xx.a(slip-arch.o)
                                                  contiki-srf06-cc26xx.a(putchar.o)
clock_delay                                       contiki-srf06-cc26xx.a(clock.o)
                                                  contiki-srf06-cc26xx.a(leds.o)
clock_delay_usec                                  contiki-srf06-cc26xx.a(clock.o)
clock_init                                        contiki-srf06-cc26xx.a(clock.o)
                                                  contiki-srf06-cc26xx.a(contiki-main.o)
clock_seconds                                     contiki-srf06-cc26xx.a(clock.o)
                                                  contiki-srf06-cc26xx.a(stimer.o)
clock_time                                        contiki-srf06-cc26xx.a(clock.o)
                                                  contiki-srf06-cc26xx.a(mac-sequence.o)
                                                  contiki-srf06-cc26xx.a(link-stats.o)
                                                  contiki-srf06-cc26xx.a(rpl-timers.o)
                                                  contiki-srf06-cc26xx.a(rpl-dag.o)
                                                  contiki-srf06-cc26xx.a(timer.o)
                                                  contiki-srf06-cc26xx.a(etimer.o)
                                                  contiki-srf06-cc26xx.a(lpm.o)
                                                  contiki-srf06-cc26xx.a(button-sensor.o)
clock_update                                      contiki-srf06-cc26xx.a(clock.o)
                                                  contiki-srf06-cc26xx.a(lpm.o)
                                                  contiki-srf06-cc26xx.a(soc-rtc.o)
clock_wait                                        contiki-srf06-cc26xx.a(clock.o)
contikimac_debug_print                            contiki-srf06-cc26xx.a(contikimac.o)
contikimac_driver                                 contiki-srf06-cc26xx.a(contikimac.o)
                                                  contiki-srf06-cc26xx.a(rf-core.o)
                                                  contiki-srf06-cc26xx.a(csma.o)
                                                  contiki-srf06-cc26xx.a(netstack.o)
                                                  contiki-srf06-cc26xx.a(contiki-main.o)
copysign                                          /usr/lib/gcc/arm-none-eabi/4.8/../../../arm-none-eabi/lib/armv7-m/libm.a(lib_a-s_copysign.o)
                                                  /usr/lib/gcc/arm-none-eabi/4.8/../../../arm-none-eabi/lib/armv7-m/libm.a(lib_a-s_scalbn.o)
csma_driver                                       contiki-srf06-cc26xx.a(csma.o)
                                                  contiki-srf06-cc26xx.a(nullsec.o)
                                                  contiki-srf06-cc26xx.a(contikimac.o)
                                                  contiki-srf06-cc26xx.a(netstack.o)
                                                  contiki-srf06-cc26xx.a(contiki-main.o)
                                                  border-router.co
ctimer_expired                                    contiki-srf06-cc26xx.a(ctimer.o)
ctimer_init                                       contiki-srf06-cc26xx.a(ctimer.o)
                                                  contiki-srf06-cc26xx.a(contiki-main.o)
ctimer_process                                    contiki-srf06-cc26xx.a(ctimer.o)
ctimer_reset                                      contiki-srf06-cc26xx.a(ctimer.o)
                                                  contiki-srf06-cc26xx.a(link-stats.o)
                                                  contiki-srf06-cc26xx.a(rpl-timers.o)
ctimer_restart                                    contiki-srf06-cc26xx.a(ctimer.o)
                                                  contiki-srf06-cc26xx.a(rpl-nbr-policy.)
ctimer_set                                        contiki-srf06-cc26xx.a(ctimer.o)
                                                  contiki-srf06-cc26xx.a(rpl-nbr-policy.)
                                                  contiki-srf06-cc26xx.a(contikimac.o)
                                                  contiki-srf06-cc26xx.a(csma.o)
                                                  contiki-srf06-cc26xx.a(link-stats.o)
                                                  contiki-srf06-cc26xx.a(rpl-timers.o)
                                                  contiki-srf06-cc26xx.a(ieee-mode.o)
                                                  contiki-srf06-cc26xx.a(mpu-9250-sensor)
                                                  contiki-srf06-cc26xx.a(hdc-1000-sensor)
                                                  contiki-srf06-cc26xx.a(opt-3001-sensor)
                                                  contiki-srf06-cc26xx.a(tmp-007-sensor.)
                                                  contiki-srf06-cc26xx.a(bmp-280-sensor.)
ctimer_set_with_process                           contiki-srf06-cc26xx.a(ctimer.o)
ctimer_stop                                       contiki-srf06-cc26xx.a(ctimer.o)
                                                  contiki-srf06-cc26xx.a(contikimac.o)
                                                  contiki-srf06-cc26xx.a(csma.o)
                                                  contiki-srf06-cc26xx.a(rpl-timers.o)
                                                  contiki-srf06-cc26xx.a(rpl-dag.o)
                                                  contiki-srf06-cc26xx.a(mpu-9250-sensor)
                                                  contiki-srf06-cc26xx.a(hdc-1000-sensor)
                                                  contiki-srf06-cc26xx.a(opt-3001-sensor)
                                                  contiki-srf06-cc26xx.a(tmp-007-sensor.)
                                                  contiki-srf06-cc26xx.a(bmp-280-sensor.)
dao_ack_output                                    contiki-srf06-cc26xx.a(rpl-icmp6.o)
dao_output                                        contiki-srf06-cc26xx.a(rpl-icmp6.o)
                                                  contiki-srf06-cc26xx.a(rpl.o)
                                                  contiki-srf06-cc26xx.a(rpl-timers.o)
                                                  contiki-srf06-cc26xx.a(rpl-dag.o)
dao_output_target                                 contiki-srf06-cc26xx.a(rpl-icmp6.o)
                                                  contiki-srf06-cc26xx.a(rpl.o)
                                                  contiki-srf06-cc26xx.a(rpl-ext-header.)
dbg_send_bytes                                    contiki-srf06-cc26xx.a(putchar.o)
                                                  contiki-srf06-cc26xx.a(dbg-printf.o)
default_instance                                  contiki-srf06-cc26xx.a(rpl-dag.o)
                                                  contiki-srf06-cc26xx.a(rpl.o)
                                                  contiki-srf06-cc26xx.a(rpl-ext-header.)
dio_output                                        contiki-srf06-cc26xx.a(rpl-icmp6.o)
                                                  contiki-srf06-cc26xx.a(rpl-timers.o)
dis_output                                        contiki-srf06-cc26xx.a(rpl-icmp6.o)
                                                  contiki-srf06-cc26xx.a(rpl-timers.o)
ds6_neighbors                                     contiki-srf06-cc26xx.a(uip-ds6-nbr.o)
                                                  contiki-srf06-cc26xx.a(rpl-nbr-policy.)
                                                  contiki-srf06-cc26xx.a(rpl-dag.o)
energest_flush                                    contiki-srf06-cc26xx.a(energest.o)
energest_init                                     contiki-srf06-cc26xx.a(energest.o)
                                                  contiki-srf06-cc26xx.a(contiki-main.o)
energest_type_set                                 contiki-srf06-cc26xx.a(energest.o)
energest_type_time                                contiki-srf06-cc26xx.a(energest.o)
etimer_adjust                                     contiki-srf06-cc26xx.a(etimer.o)
etimer_expiration_time                            contiki-srf06-cc26xx.a(etimer.o)
                                                  contiki-srf06-cc26xx.a(rpl-timers.o)
etimer_expired                                    contiki-srf06-cc26xx.a(etimer.o)
                                                  contiki-srf06-cc26xx.a(rf-ble.o)
                                                  contiki-srf06-cc26xx.a(rpl-timers.o)
                                                  contiki-srf06-cc26xx.a(tcpip.o)
                                                  contiki-srf06-cc26xx.a(ctimer.o)
                                                  border-router.co
etimer_next_expiration_time                       contiki-srf06-cc26xx.a(etimer.o)
                                                  contiki-srf06-cc26xx.a(lpm.o)
etimer_pending                                    contiki-srf06-cc26xx.a(etimer.o)
                                                  contiki-srf06-cc26xx.a(lpm.o)
                                                  contiki-srf06-cc26xx.a(clock.o)
etimer_process                                    contiki-srf06-cc26xx.a(etimer.o)
                                                  contiki-srf06-cc26xx.a(contiki-main.o)
etimer_request_poll                               contiki-srf06-cc26xx.a(etimer.o)
                                                  contiki-srf06-cc26xx.a(clock.o)
etimer_reset                                      contiki-srf06-cc26xx.a(etimer.o)
                                                  contiki-srf06-cc26xx.a(uip-ds6.o)
                                                  contiki-srf06-cc26xx.a(ctimer.o)
etimer_reset_with_new_interval                    contiki-srf06-cc26xx.a(etimer.o)
etimer_restart                                    contiki-srf06-cc26xx.a(etimer.o)
                                                  contiki-srf06-cc26xx.a(tcpip.o)
                                                  contiki-srf06-cc26xx.a(ctimer.o)
etimer_set                                        contiki-srf06-cc26xx.a(etimer.o)
                                                  contiki-srf06-cc26xx.a(rf-ble.o)
                                                  contiki-srf06-cc26xx.a(tcpip.o)
                                                  contiki-srf06-cc26xx.a(uip-ds6.o)
                                                  contiki-srf06-cc26xx.a(ctimer.o)
                                                  border-router.co
etimer_start_time                                 contiki-srf06-cc26xx.a(etimer.o)
etimer_stop                                       contiki-srf06-cc26xx.a(etimer.o)
                                                  contiki-srf06-cc26xx.a(ctimer.o)
exp2                                              /usr/lib/gcc/arm-none-eabi/4.8/../../../arm-none-eabi/lib/armv7-m/libm.a(lib_a-w_exp2.o)
                                                  contiki-srf06-cc26xx.a(opt-3001-sensor)
ext_flash_close                                   contiki-srf06-cc26xx.a(ext-flash.o)
ext_flash_erase                                   contiki-srf06-cc26xx.a(ext-flash.o)
ext_flash_init                                    contiki-srf06-cc26xx.a(ext-flash.o)
                                                  contiki-srf06-cc26xx.a(board.o)
ext_flash_open                                    contiki-srf06-cc26xx.a(ext-flash.o)
ext_flash_read                                    contiki-srf06-cc26xx.a(ext-flash.o)
ext_flash_test                                    contiki-srf06-cc26xx.a(ext-flash.o)
ext_flash_write                                   contiki-srf06-cc26xx.a(ext-flash.o)
fabs                                              /usr/lib/gcc/arm-none-eabi/4.8/../../../arm-none-eabi/lib/armv7-m/libm.a(lib_a-s_fabs.o)
                                                  /usr/lib/gcc/arm-none-eabi/4.8/../../../arm-none-eabi/lib/armv7-m/libm.a(lib_a-e_pow.o)
find_removable_dao                                contiki-srf06-cc26xx.a(rpl-nbr-policy.)
find_removable_dio                                contiki-srf06-cc26xx.a(rpl-nbr-policy.)
find_removable_dis                                contiki-srf06-cc26xx.a(rpl-nbr-policy.)
finite                                            /usr/lib/gcc/arm-none-eabi/4.8/../../../arm-none-eabi/lib/armv7-m/libm.a(lib_a-s_finite.o)
                                                  /usr/lib/gcc/arm-none-eabi/4.8/../../../arm-none-eabi/lib/armv7-m/libm.a(lib_a-w_pow.o)
format_str                                        contiki-srf06-cc26xx.a(strformat.o)
format_str_v                                      contiki-srf06-cc26xx.a(strformat.o)
                                                  contiki-srf06-cc26xx.a(dbg-printf.o)
frame802154_check_dest_panid                      contiki-srf06-cc26xx.a(frame802154.o)
frame802154_create                                contiki-srf06-cc26xx.a(frame802154.o)
                                                  contiki-srf06-cc26xx.a(framer-802154.o)
frame802154_extract_linkaddr                      contiki-srf06-cc26xx.a(frame802154.o)
frame802154_get_pan_id                            contiki-srf06-cc26xx.a(frame802154.o)
                                                  contiki-srf06-cc26xx.a(framer-802154.o)
frame802154_has_panid                             contiki-srf06-cc26xx.a(frame802154.o)
frame802154_hdrlen                                contiki-srf06-cc26xx.a(frame802154.o)
                                                  contiki-srf06-cc26xx.a(framer-802154.o)
frame802154_is_broadcast_addr                     contiki-srf06-cc26xx.a(frame802154.o)
                                                  contiki-srf06-cc26xx.a(framer-802154.o)
frame802154_parse                                 contiki-srf06-cc26xx.a(frame802154.o)
                                                  contiki-srf06-cc26xx.a(framer-802154.o)
frame802154_set_pan_id                            contiki-srf06-cc26xx.a(frame802154.o)
framer_802154                                     contiki-srf06-cc26xx.a(framer-802154.o)
                                                  contiki-srf06-cc26xx.a(contikimac.o)
                                                  contiki-srf06-cc26xx.a(sicslowpan.o)
g_pfnVectors                                      obj_srf06-cc26xx/startup_gcc.o
get_match_length                                  contiki-srf06-cc26xx.a(uip-ds6.o)
get_probing_delay                                 contiki-srf06-cc26xx.a(rpl-timers.o)
get_probing_target                                contiki-srf06-cc26xx.a(rpl-timers.o)
gpio_interrupt_init                               contiki-srf06-cc26xx.a(gpio-interrupt.)
                                                  contiki-srf06-cc26xx.a(contiki-main.o)
gpio_interrupt_register_handler                   contiki-srf06-cc26xx.a(gpio-interrupt.)
                                                  contiki-srf06-cc26xx.a(reed-relay.o)
                                                  contiki-srf06-cc26xx.a(button-sensor.o)
guess_etx_from_rssi                               contiki-srf06-cc26xx.a(link-stats.o)
hdc_1000_sensor                                   contiki-srf06-cc26xx.a(hdc-1000-sensor)
                                                  contiki-srf06-cc26xx.a(board.o)
                                                  contiki-srf06-cc26xx.a(sensortag-senso)
icmp6_new                                         contiki-srf06-cc26xx.a(tcpip.o)
ieee_addr_cpy_to                                  contiki-srf06-cc26xx.a(ieee-addr.o)
                                                  contiki-srf06-cc26xx.a(contiki-main.o)
ieee_mode_driver                                  contiki-srf06-cc26xx.a(ieee-mode.o)
                                                  contiki-srf06-cc26xx.a(rf-ble.o)
                                                  contiki-srf06-cc26xx.a(rf-core.o)
                                                  contiki-srf06-cc26xx.a(contikimac.o)
                                                  contiki-srf06-cc26xx.a(netstack.o)
                                                  contiki-srf06-cc26xx.a(contiki-main.o)
instance_table                                    contiki-srf06-cc26xx.a(rpl-dag.o)
                                                  contiki-srf06-cc26xx.a(rpl-icmp6.o)
                                                  contiki-srf06-cc26xx.a(rpl.o)
leds_arch_get                                     contiki-srf06-cc26xx.a(leds-arch.o)
                                                  contiki-srf06-cc26xx.a(leds.o)
leds_arch_init                                    contiki-srf06-cc26xx.a(leds-arch.o)
                                                  contiki-srf06-cc26xx.a(leds.o)
leds_arch_set                                     contiki-srf06-cc26xx.a(leds-arch.o)
                                                  contiki-srf06-cc26xx.a(leds.o)
leds_blink                                        contiki-srf06-cc26xx.a(leds.o)
leds_get                                          contiki-srf06-cc26xx.a(leds.o)
leds_init                                         contiki-srf06-cc26xx.a(leds.o)
                                                  contiki-srf06-cc26xx.a(contiki-main.o)
leds_off                                          contiki-srf06-cc26xx.a(leds.o)
                                                  contiki-srf06-cc26xx.a(contiki-main.o)
leds_on                                           contiki-srf06-cc26xx.a(leds.o)
                                                  contiki-srf06-cc26xx.a(contiki-main.o)
leds_set                                          contiki-srf06-cc26xx.a(leds.o)
leds_toggle                                       contiki-srf06-cc26xx.a(leds.o)
link_stats_from_lladdr                            contiki-srf06-cc26xx.a(link-stats.o)
                                                  contiki-srf06-cc26xx.a(rpl-dag.o)
link_stats_init                                   contiki-srf06-cc26xx.a(link-stats.o)
                                                  contiki-srf06-cc26xx.a(uip-ds6-nbr.o)
link_stats_input_callback                         contiki-srf06-cc26xx.a(link-stats.o)
                                                  contiki-srf06-cc26xx.a(sicslowpan.o)
link_stats_is_fresh                               contiki-srf06-cc26xx.a(link-stats.o)
                                                  contiki-srf06-cc26xx.a(rpl-dag.o)
link_stats_packet_sent                            contiki-srf06-cc26xx.a(link-stats.o)
                                                  contiki-srf06-cc26xx.a(uip-ds6-nbr.o)
linkaddr_cmp                                      contiki-srf06-cc26xx.a(linkaddr.o)
                                                  contiki-srf06-cc26xx.a(mac-sequence.o)
                                                  contiki-srf06-cc26xx.a(contikimac.o)
                                                  contiki-srf06-cc26xx.a(csma.o)
                                                  contiki-srf06-cc26xx.a(packetbuf.o)
                                                  contiki-srf06-cc26xx.a(nbr-table.o)
                                                  contiki-srf06-cc26xx.a(sicslowpan.o)
                                                  contiki-srf06-cc26xx.a(uip-ds6-nbr.o)
linkaddr_copy                                     contiki-srf06-cc26xx.a(linkaddr.o)
                                                  contiki-srf06-cc26xx.a(mac-sequence.o)
                                                  contiki-srf06-cc26xx.a(frame802154.o)
                                                  contiki-srf06-cc26xx.a(csma.o)
                                                  contiki-srf06-cc26xx.a(framer-802154.o)
                                                  contiki-srf06-cc26xx.a(packetbuf.o)
                                                  contiki-srf06-cc26xx.a(nbr-table.o)
                                                  contiki-srf06-cc26xx.a(sicslowpan.o)
linkaddr_node_addr                                contiki-srf06-cc26xx.a(linkaddr.o)
                                                  contiki-srf06-cc26xx.a(rf-ble.o)
                                                  contiki-srf06-cc26xx.a(contikimac.o)
                                                  contiki-srf06-cc26xx.a(contiki-main.o)
linkaddr_null                                     contiki-srf06-cc26xx.a(linkaddr.o)
                                                  contiki-srf06-cc26xx.a(frame802154.o)
                                                  contiki-srf06-cc26xx.a(packetbuf.o)
                                                  contiki-srf06-cc26xx.a(nbr-table.o)
                                                  contiki-srf06-cc26xx.a(sicslowpan.o)
                                                  contiki-srf06-cc26xx.a(uip-ds6-nbr.o)
linkaddr_set_node_addr                            contiki-srf06-cc26xx.a(linkaddr.o)
list_add                                          contiki-srf06-cc26xx.a(list.o)
                                                  contiki-srf06-cc26xx.a(uip-icmp6.o)
                                                  contiki-srf06-cc26xx.a(aux-ctrl.o)
                                                  contiki-srf06-cc26xx.a(csma.o)
                                                  contiki-srf06-cc26xx.a(nbr-table.o)
                                                  contiki-srf06-cc26xx.a(uip-ds6-route.o)
                                                  contiki-srf06-cc26xx.a(ctimer.o)
                                                  contiki-srf06-cc26xx.a(lpm.o)
list_chop                                         contiki-srf06-cc26xx.a(list.o)
list_copy                                         contiki-srf06-cc26xx.a(list.o)
list_head                                         contiki-srf06-cc26xx.a(list.o)
                                                  contiki-srf06-cc26xx.a(uip-icmp6.o)
                                                  contiki-srf06-cc26xx.a(aux-ctrl.o)
                                                  contiki-srf06-cc26xx.a(csma.o)
                                                  contiki-srf06-cc26xx.a(nbr-table.o)
                                                  contiki-srf06-cc26xx.a(uip-ds6-route.o)
                                                  contiki-srf06-cc26xx.a(ctimer.o)
                                                  contiki-srf06-cc26xx.a(lpm.o)
list_init                                         contiki-srf06-cc26xx.a(list.o)
                                                  contiki-srf06-cc26xx.a(csma.o)
                                                  contiki-srf06-cc26xx.a(uip-ds6-route.o)
                                                  contiki-srf06-cc26xx.a(ctimer.o)
                                                  contiki-srf06-cc26xx.a(lpm.o)
list_insert                                       contiki-srf06-cc26xx.a(list.o)
list_item_next                                    contiki-srf06-cc26xx.a(list.o)
                                                  contiki-srf06-cc26xx.a(uip-icmp6.o)
                                                  contiki-srf06-cc26xx.a(contikimac.o)
                                                  contiki-srf06-cc26xx.a(csma.o)
                                                  contiki-srf06-cc26xx.a(nbr-table.o)
                                                  contiki-srf06-cc26xx.a(uip-ds6-route.o)
list_length                                       contiki-srf06-cc26xx.a(list.o)
                                                  contiki-srf06-cc26xx.a(csma.o)
                                                  contiki-srf06-cc26xx.a(uip-ds6-route.o)
list_pop                                          contiki-srf06-cc26xx.a(list.o)
list_push                                         contiki-srf06-cc26xx.a(list.o)
                                                  contiki-srf06-cc26xx.a(uip-ds6-route.o)
list_remove                                       contiki-srf06-cc26xx.a(list.o)
                                                  contiki-srf06-cc26xx.a(uip-icmp6.o)
                                                  contiki-srf06-cc26xx.a(aux-ctrl.o)
                                                  contiki-srf06-cc26xx.a(csma.o)
                                                  contiki-srf06-cc26xx.a(nbr-table.o)
                                                  contiki-srf06-cc26xx.a(uip-ds6-route.o)
                                                  contiki-srf06-cc26xx.a(ctimer.o)
                                                  contiki-srf06-cc26xx.a(lpm.o)
list_tail                                         contiki-srf06-cc26xx.a(list.o)
llprefix                                          contiki-srf06-cc26xx.a(sicslowpan.o)
lpm_drop                                          contiki-srf06-cc26xx.a(lpm.o)
                                                  contiki-srf06-cc26xx.a(contiki-main.o)
lpm_init                                          contiki-srf06-cc26xx.a(lpm.o)
                                                  contiki-srf06-cc26xx.a(contiki-main.o)
lpm_pin_set_default_state                         contiki-srf06-cc26xx.a(lpm.o)
                                                  contiki-srf06-cc26xx.a(cc26xx-uart.o)
lpm_register_module                               contiki-srf06-cc26xx.a(lpm.o)
                                                  contiki-srf06-cc26xx.a(buzzer.o)
                                                  contiki-srf06-cc26xx.a(soc-trng.o)
                                                  contiki-srf06-cc26xx.a(ieee-mode.o)
                                                  contiki-srf06-cc26xx.a(cc26xx-uart.o)
                                                  contiki-srf06-cc26xx.a(board.o)
lpm_shutdown                                      contiki-srf06-cc26xx.a(lpm.o)
                                                  contiki-srf06-cc26xx.a(button-sensor.o)
lpm_sleep                                         contiki-srf06-cc26xx.a(lpm.o)
                                                  contiki-srf06-cc26xx.a(ieee-mode.o)
lpm_unregister_module                             contiki-srf06-cc26xx.a(lpm.o)
                                                  contiki-srf06-cc26xx.a(buzzer.o)
                                                  contiki-srf06-cc26xx.a(soc-trng.o)
mac_call_sent_callback                            contiki-srf06-cc26xx.a(mac.o)
                                                  contiki-srf06-cc26xx.a(contikimac.o)
                                                  contiki-srf06-cc26xx.a(csma.o)
mac_sequence_is_duplicate                         contiki-srf06-cc26xx.a(mac-sequence.o)
                                                  contiki-srf06-cc26xx.a(contikimac.o)
mac_sequence_register_seqno                       contiki-srf06-cc26xx.a(mac-sequence.o)
                                                  contiki-srf06-cc26xx.a(contikimac.o)
main                                              contiki-srf06-cc26xx.a(contiki-main.o)
                                                  obj_srf06-cc26xx/startup_gcc.o
matherr                                           /usr/lib/gcc/arm-none-eabi/4.8/../../../arm-none-eabi/lib/armv7-m/libm.a(lib_a-s_matherr.o)
                                                  /usr/lib/gcc/arm-none-eabi/4.8/../../../arm-none-eabi/lib/armv7-m/libm.a(lib_a-w_pow.o)
memb_alloc                                        contiki-srf06-cc26xx.a(memb.o)
                                                  contiki-srf06-cc26xx.a(csma.o)
                                                  contiki-srf06-cc26xx.a(nbr-table.o)
                                                  contiki-srf06-cc26xx.a(queuebuf.o)
                                                  contiki-srf06-cc26xx.a(uip-ds6-route.o)
memb_free                                         contiki-srf06-cc26xx.a(memb.o)
                                                  contiki-srf06-cc26xx.a(csma.o)
                                                  contiki-srf06-cc26xx.a(queuebuf.o)
                                                  contiki-srf06-cc26xx.a(uip-ds6-route.o)
memb_init                                         contiki-srf06-cc26xx.a(memb.o)
                                                  contiki-srf06-cc26xx.a(csma.o)
                                                  contiki-srf06-cc26xx.a(queuebuf.o)
                                                  contiki-srf06-cc26xx.a(uip-ds6-route.o)
memb_inmemb                                       contiki-srf06-cc26xx.a(memb.o)
                                                  contiki-srf06-cc26xx.a(queuebuf.o)
memb_numfree                                      contiki-srf06-cc26xx.a(memb.o)
                                                  contiki-srf06-cc26xx.a(queuebuf.o)
memcmp                                            /usr/lib/gcc/arm-none-eabi/4.8/../../../arm-none-eabi/lib/armv7-m/libc.a(lib_a-memcmp.o)
                                                  contiki-srf06-cc26xx.a(linkaddr.o)
                                                  contiki-srf06-cc26xx.a(rpl-icmp6.o)
                                                  contiki-srf06-cc26xx.a(rpl.o)
                                                  contiki-srf06-cc26xx.a(rpl-dag.o)
                                                  contiki-srf06-cc26xx.a(sicslowpan.o)
                                                  contiki-srf06-cc26xx.a(uip-nd6.o)
                                                  contiki-srf06-cc26xx.a(uip-ds6-nbr.o)
                                                  contiki-srf06-cc26xx.a(uip6.o)
                                                  contiki-srf06-cc26xx.a(uip-ds6-route.o)
                                                  contiki-srf06-cc26xx.a(uip-ds6.o)
                                                  obj_srf06-cc26xx/slip-bridge.o
memcpy                                            /usr/lib/gcc/arm-none-eabi/4.8/../../../arm-none-eabi/lib/armv7-m/libc.a(lib_a-memcpy.o)
                                                  contiki-srf06-cc26xx.a(rf-ble.o)
                                                  contiki-srf06-cc26xx.a(packetbuf.o)
                                                  contiki-srf06-cc26xx.a(rpl-icmp6.o)
                                                  contiki-srf06-cc26xx.a(rpl-dag.o)
                                                  contiki-srf06-cc26xx.a(sicslowpan.o)
                                                  contiki-srf06-cc26xx.a(uip6.o)
                                                  contiki-srf06-cc26xx.a(ieee-mode.o)
memmove                                           /usr/lib/gcc/arm-none-eabi/4.8/../../../arm-none-eabi/lib/armv7-m/libc.a(lib_a-memmove.o)
                                                  contiki-srf06-cc26xx.a(uip-icmp6.o)
                                                  contiki-srf06-cc26xx.a(rpl-ext-header.)
                                                  contiki-srf06-cc26xx.a(sicslowpan.o)
                                                  contiki-srf06-cc26xx.a(uip6.o)
memset                                            /usr/lib/gcc/arm-none-eabi/4.8/../../../arm-none-eabi/lib/armv7-m/libc.a(lib_a-memset.o)
                                                  contiki-srf06-cc26xx.a(memb.o)
                                                  contiki-srf06-cc26xx.a(rf-ble.o)
                                                  contiki-srf06-cc26xx.a(rf-core.o)
                                                  contiki-srf06-cc26xx.a(frame802154.o)
                                                  contiki-srf06-cc26xx.a(framer-802154.o)
                                                  contiki-srf06-cc26xx.a(packetbuf.o)
                                                  contiki-srf06-cc26xx.a(nbr-table.o)
                                                  contiki-srf06-cc26xx.a(rpl-icmp6.o)
                                                  contiki-srf06-cc26xx.a(rpl-dag.o)
                                                  contiki-srf06-cc26xx.a(sicslowpan.o)
                                                  contiki-srf06-cc26xx.a(uip-nd6.o)
                                                  contiki-srf06-cc26xx.a(uip6.o)
                                                  contiki-srf06-cc26xx.a(uip-ds6-route.o)
                                                  contiki-srf06-cc26xx.a(uip-ds6.o)
                                                  contiki-srf06-cc26xx.a(ieee-mode.o)
                                                  contiki-srf06-cc26xx.a(mpu-9250-sensor)
                                                  contiki-srf06-cc26xx.a(bmp-280-sensor.)
                                                  obj_srf06-cc26xx/slip-bridge.o
mpu_9250_sensor                                   contiki-srf06-cc26xx.a(mpu-9250-sensor)
                                                  contiki-srf06-cc26xx.a(board.o)
                                                  contiki-srf06-cc26xx.a(sensortag-senso)
nan                                               /usr/lib/gcc/arm-none-eabi/4.8/../../../arm-none-eabi/lib/armv7-m/libm.a(lib_a-s_nan.o)
                                                  /usr/lib/gcc/arm-none-eabi/4.8/../../../arm-none-eabi/lib/armv7-m/libm.a(lib_a-e_pow.o)
nbr_routes                                        contiki-srf06-cc26xx.a(uip-ds6-route.o)
nbr_table_add_lladdr                              contiki-srf06-cc26xx.a(nbr-table.o)
                                                  contiki-srf06-cc26xx.a(link-stats.o)
                                                  contiki-srf06-cc26xx.a(rpl-dag.o)
                                                  contiki-srf06-cc26xx.a(uip-ds6-nbr.o)
                                                  contiki-srf06-cc26xx.a(uip-ds6-route.o)
nbr_table_get_from_lladdr                         contiki-srf06-cc26xx.a(nbr-table.o)
                                                  contiki-srf06-cc26xx.a(link-stats.o)
                                                  contiki-srf06-cc26xx.a(rpl-ext-header.)
                                                  contiki-srf06-cc26xx.a(rpl-dag.o)
                                                  contiki-srf06-cc26xx.a(uip-ds6-nbr.o)
                                                  contiki-srf06-cc26xx.a(uip-ds6-route.o)
nbr_table_get_lladdr                              contiki-srf06-cc26xx.a(nbr-table.o)
                                                  contiki-srf06-cc26xx.a(rpl-nbr-policy.)
                                                  contiki-srf06-cc26xx.a(rpl-dag.o)
                                                  contiki-srf06-cc26xx.a(uip-ds6-nbr.o)
                                                  contiki-srf06-cc26xx.a(uip-ds6-route.o)
nbr_table_head                                    contiki-srf06-cc26xx.a(nbr-table.o)
                                                  contiki-srf06-cc26xx.a(rpl-nbr-policy.)
                                                  contiki-srf06-cc26xx.a(link-stats.o)
                                                  contiki-srf06-cc26xx.a(rpl-timers.o)
                                                  contiki-srf06-cc26xx.a(rpl-dag.o)
                                                  contiki-srf06-cc26xx.a(uip-ds6-nbr.o)
nbr_table_lock                                    contiki-srf06-cc26xx.a(nbr-table.o)
                                                  contiki-srf06-cc26xx.a(rpl-dag.o)
                                                  contiki-srf06-cc26xx.a(uip-ds6-route.o)
nbr_table_next                                    contiki-srf06-cc26xx.a(nbr-table.o)
                                                  contiki-srf06-cc26xx.a(rpl-nbr-policy.)
                                                  contiki-srf06-cc26xx.a(link-stats.o)
                                                  contiki-srf06-cc26xx.a(rpl-timers.o)
                                                  contiki-srf06-cc26xx.a(rpl-dag.o)
                                                  contiki-srf06-cc26xx.a(uip-ds6-nbr.o)
nbr_table_register                                contiki-srf06-cc26xx.a(nbr-table.o)
                                                  contiki-srf06-cc26xx.a(link-stats.o)
                                                  contiki-srf06-cc26xx.a(rpl-dag.o)
                                                  contiki-srf06-cc26xx.a(uip-ds6-nbr.o)
                                                  contiki-srf06-cc26xx.a(uip-ds6-route.o)
nbr_table_remove                                  contiki-srf06-cc26xx.a(nbr-table.o)
                                                  contiki-srf06-cc26xx.a(rpl-dag.o)
                                                  contiki-srf06-cc26xx.a(uip-ds6-nbr.o)
                                                  contiki-srf06-cc26xx.a(uip-ds6-route.o)
nbr_table_unlock                                  contiki-srf06-cc26xx.a(nbr-table.o)
                                                  contiki-srf06-cc26xx.a(rpl-dag.o)
nbr_table_update_lladdr                           contiki-srf06-cc26xx.a(nbr-table.o)
                                                  contiki-srf06-cc26xx.a(uip-nd6.o)
netstack_init                                     contiki-srf06-cc26xx.a(netstack.o)
                                                  contiki-srf06-cc26xx.a(contiki-main.o)
node_id                                           contiki-srf06-cc26xx.a(contiki-main.o)
nullsec_driver                                    contiki-srf06-cc26xx.a(nullsec.o)
                                                  contiki-srf06-cc26xx.a(csma.o)
                                                  contiki-srf06-cc26xx.a(netstack.o)
                                                  contiki-srf06-cc26xx.a(sicslowpan.o)
opt_3001_sensor                                   contiki-srf06-cc26xx.a(opt-3001-sensor)
                                                  contiki-srf06-cc26xx.a(board.o)
                                                  contiki-srf06-cc26xx.a(sensortag-senso)
oscillators_request_hf_xosc                       contiki-srf06-cc26xx.a(oscillators.o)
                                                  contiki-srf06-cc26xx.a(rf-ble.o)
                                                  contiki-srf06-cc26xx.a(ieee-mode.o)
                                                  contiki-srf06-cc26xx.a(lpm.o)
oscillators_select_lf_rcosc                       contiki-srf06-cc26xx.a(oscillators.o)
                                                  contiki-srf06-cc26xx.a(lpm.o)
oscillators_select_lf_xosc                        contiki-srf06-cc26xx.a(oscillators.o)
                                                  contiki-srf06-cc26xx.a(contiki-main.o)
oscillators_switch_to_hf_rc                       contiki-srf06-cc26xx.a(oscillators.o)
                                                  contiki-srf06-cc26xx.a(rf-ble.o)
                                                  contiki-srf06-cc26xx.a(lpm.o)
oscillators_switch_to_hf_xosc                     contiki-srf06-cc26xx.a(oscillators.o)
                                                  contiki-srf06-cc26xx.a(rf-ble.o)
                                                  contiki-srf06-cc26xx.a(ieee-mode.o)
packetbuf_addr                                    contiki-srf06-cc26xx.a(packetbuf.o)
                                                  contiki-srf06-cc26xx.a(mac-sequence.o)
                                                  contiki-srf06-cc26xx.a(contikimac.o)
                                                  contiki-srf06-cc26xx.a(csma.o)
                                                  contiki-srf06-cc26xx.a(framer-802154.o)
                                                  contiki-srf06-cc26xx.a(rpl-icmp6.o)
                                                  contiki-srf06-cc26xx.a(rpl-ext-header.)
                                                  contiki-srf06-cc26xx.a(sicslowpan.o)
                                                  contiki-srf06-cc26xx.a(uip-ds6-nbr.o)
packetbuf_addrs                                   contiki-srf06-cc26xx.a(packetbuf.o)
packetbuf_attr                                    contiki-srf06-cc26xx.a(packetbuf.o)
                                                  contiki-srf06-cc26xx.a(mac-sequence.o)
                                                  contiki-srf06-cc26xx.a(contikimac.o)
                                                  contiki-srf06-cc26xx.a(csma.o)
                                                  contiki-srf06-cc26xx.a(framer-802154.o)
                                                  contiki-srf06-cc26xx.a(link-stats.o)
                                                  contiki-srf06-cc26xx.a(sicslowpan.o)
packetbuf_attr_clear                              contiki-srf06-cc26xx.a(packetbuf.o)
packetbuf_attr_copyfrom                           contiki-srf06-cc26xx.a(packetbuf.o)
                                                  contiki-srf06-cc26xx.a(queuebuf.o)
packetbuf_attr_copyto                             contiki-srf06-cc26xx.a(packetbuf.o)
                                                  contiki-srf06-cc26xx.a(queuebuf.o)
packetbuf_attrs                                   contiki-srf06-cc26xx.a(packetbuf.o)
packetbuf_clear                                   contiki-srf06-cc26xx.a(packetbuf.o)
                                                  contiki-srf06-cc26xx.a(rf-core.o)
                                                  contiki-srf06-cc26xx.a(sicslowpan.o)
packetbuf_compact                                 contiki-srf06-cc26xx.a(packetbuf.o)
packetbuf_copyfrom                                contiki-srf06-cc26xx.a(packetbuf.o)
                                                  contiki-srf06-cc26xx.a(queuebuf.o)
packetbuf_copyto                                  contiki-srf06-cc26xx.a(packetbuf.o)
                                                  contiki-srf06-cc26xx.a(queuebuf.o)
packetbuf_datalen                                 contiki-srf06-cc26xx.a(packetbuf.o)
                                                  contiki-srf06-cc26xx.a(contikimac.o)
                                                  contiki-srf06-cc26xx.a(framer-802154.o)
                                                  contiki-srf06-cc26xx.a(sicslowpan.o)
packetbuf_dataptr                                 contiki-srf06-cc26xx.a(packetbuf.o)
                                                  contiki-srf06-cc26xx.a(rf-core.o)
                                                  contiki-srf06-cc26xx.a(framer-802154.o)
                                                  contiki-srf06-cc26xx.a(sicslowpan.o)
packetbuf_hdralloc                                contiki-srf06-cc26xx.a(packetbuf.o)
                                                  contiki-srf06-cc26xx.a(framer-802154.o)
packetbuf_hdrlen                                  contiki-srf06-cc26xx.a(packetbuf.o)
packetbuf_hdrptr                                  contiki-srf06-cc26xx.a(packetbuf.o)
                                                  contiki-srf06-cc26xx.a(contikimac.o)
                                                  contiki-srf06-cc26xx.a(framer-802154.o)
packetbuf_hdrreduce                               contiki-srf06-cc26xx.a(packetbuf.o)
                                                  contiki-srf06-cc26xx.a(framer-802154.o)
packetbuf_holds_broadcast                         contiki-srf06-cc26xx.a(packetbuf.o)
                                                  contiki-srf06-cc26xx.a(contikimac.o)
                                                  contiki-srf06-cc26xx.a(framer-802154.o)
packetbuf_remaininglen                            contiki-srf06-cc26xx.a(packetbuf.o)
packetbuf_set_addr                                contiki-srf06-cc26xx.a(packetbuf.o)
                                                  contiki-srf06-cc26xx.a(contikimac.o)
                                                  contiki-srf06-cc26xx.a(framer-802154.o)
                                                  contiki-srf06-cc26xx.a(sicslowpan.o)
packetbuf_set_attr                                contiki-srf06-cc26xx.a(packetbuf.o)
                                                  contiki-srf06-cc26xx.a(nullsec.o)
                                                  contiki-srf06-cc26xx.a(contikimac.o)
                                                  contiki-srf06-cc26xx.a(csma.o)
                                                  contiki-srf06-cc26xx.a(framer-802154.o)
                                                  contiki-srf06-cc26xx.a(sicslowpan.o)
                                                  contiki-srf06-cc26xx.a(ieee-mode.o)
packetbuf_set_datalen                             contiki-srf06-cc26xx.a(packetbuf.o)
                                                  contiki-srf06-cc26xx.a(rf-core.o)
                                                  contiki-srf06-cc26xx.a(sicslowpan.o)
packetbuf_totlen                                  contiki-srf06-cc26xx.a(packetbuf.o)
                                                  contiki-srf06-cc26xx.a(contikimac.o)
periodic_timer                                    contiki-srf06-cc26xx.a(link-stats.o)
pow                                               /usr/lib/gcc/arm-none-eabi/4.8/../../../arm-none-eabi/lib/armv7-m/libm.a(lib_a-w_pow.o)
                                                  /usr/lib/gcc/arm-none-eabi/4.8/../../../arm-none-eabi/lib/armv7-m/libm.a(lib_a-w_exp2.o)
printf                                            contiki-srf06-cc26xx.a(dbg-printf.o)
                                                  contiki-srf06-cc26xx.a(mac.o)
                                                  contiki-srf06-cc26xx.a(rpl.o)
                                                  contiki-srf06-cc26xx.a(rpl-dag.o)
                                                  contiki-srf06-cc26xx.a(uip-debug.o)
                                                  contiki-srf06-cc26xx.a(contiki-main.o)
                                                  obj_srf06-cc26xx/slip-bridge.o
process_alloc_event                               contiki-srf06-cc26xx.a(process.o)
                                                  contiki-srf06-cc26xx.a(tcpip.o)
                                                  contiki-srf06-cc26xx.a(serial-line.o)
                                                  contiki-srf06-cc26xx.a(soc-trng.o)
                                                  contiki-srf06-cc26xx.a(sensors.o)
process_current                                   contiki-srf06-cc26xx.a(process.o)
                                                  contiki-srf06-cc26xx.a(tcpip.o)
                                                  contiki-srf06-cc26xx.a(serial-line.o)
                                                  contiki-srf06-cc26xx.a(etimer.o)
                                                  contiki-srf06-cc26xx.a(ctimer.o)
                                                  border-router.co
process_exit                                      contiki-srf06-cc26xx.a(process.o)
                                                  contiki-srf06-cc26xx.a(rf-ble.o)
                                                  contiki-srf06-cc26xx.a(autostart.o)
process_init                                      contiki-srf06-cc26xx.a(process.o)
                                                  contiki-srf06-cc26xx.a(contiki-main.o)
process_is_running                                contiki-srf06-cc26xx.a(process.o)
process_list                                      contiki-srf06-cc26xx.a(process.o)
process_nevents                                   contiki-srf06-cc26xx.a(process.o)
                                                  contiki-srf06-cc26xx.a(lpm.o)
process_poll                                      contiki-srf06-cc26xx.a(process.o)
                                                  contiki-srf06-cc26xx.a(rf-core.o)
                                                  contiki-srf06-cc26xx.a(serial-line.o)
                                                  contiki-srf06-cc26xx.a(etimer.o)
                                                  contiki-srf06-cc26xx.a(ieee-mode.o)
                                                  contiki-srf06-cc26xx.a(slip.o)
                                                  contiki-srf06-cc26xx.a(sensors.o)
process_post                                      contiki-srf06-cc26xx.a(process.o)
                                                  contiki-srf06-cc26xx.a(tcpip.o)
                                                  contiki-srf06-cc26xx.a(serial-line.o)
                                                  contiki-srf06-cc26xx.a(etimer.o)
                                                  contiki-srf06-cc26xx.a(soc-trng.o)
                                                  contiki-srf06-cc26xx.a(sensors.o)
                                                  border-router.co
process_post_synch                                contiki-srf06-cc26xx.a(process.o)
                                                  contiki-srf06-cc26xx.a(tcpip.o)
process_run                                       contiki-srf06-cc26xx.a(process.o)
                                                  contiki-srf06-cc26xx.a(contiki-main.o)
process_start                                     contiki-srf06-cc26xx.a(process.o)
                                                  contiki-srf06-cc26xx.a(serial-line.o)
                                                  contiki-srf06-cc26xx.a(autostart.o)
                                                  contiki-srf06-cc26xx.a(ctimer.o)
                                                  contiki-srf06-cc26xx.a(soc-trng.o)
                                                  contiki-srf06-cc26xx.a(ieee-mode.o)
                                                  contiki-srf06-cc26xx.a(contiki-main.o)
                                                  obj_srf06-cc26xx/slip-bridge.o
putchar                                           contiki-srf06-cc26xx.a(putchar.o)
                                                  contiki-srf06-cc26xx.a(rpl.o)
                                                  contiki-srf06-cc26xx.a(uip-debug.o)
                                                  contiki-srf06-cc26xx.a(contiki-main.o)
                                                  obj_srf06-cc26xx/slip-bridge.o
                                                  border-router.co
puts                                              contiki-srf06-cc26xx.a(putchar.o)
                                                  contiki-srf06-cc26xx.a(rf-core.o)
                                                  contiki-srf06-cc26xx.a(rpl.o)
                                                  contiki-srf06-cc26xx.a(rpl-dag.o)
                                                  contiki-srf06-cc26xx.a(contiki-main.o)
                                                  border-router.co
queuebuf_addr                                     contiki-srf06-cc26xx.a(queuebuf.o)
queuebuf_attr                                     contiki-srf06-cc26xx.a(queuebuf.o)
                                                  contiki-srf06-cc26xx.a(csma.o)
queuebuf_datalen                                  contiki-srf06-cc26xx.a(queuebuf.o)
queuebuf_dataptr                                  contiki-srf06-cc26xx.a(queuebuf.o)
queuebuf_debug_print                              contiki-srf06-cc26xx.a(queuebuf.o)
queuebuf_free                                     contiki-srf06-cc26xx.a(queuebuf.o)
                                                  contiki-srf06-cc26xx.a(csma.o)
                                                  contiki-srf06-cc26xx.a(sicslowpan.o)
queuebuf_init                                     contiki-srf06-cc26xx.a(queuebuf.o)
                                                  contiki-srf06-cc26xx.a(contiki-main.o)
queuebuf_new_from_packetbuf                       contiki-srf06-cc26xx.a(queuebuf.o)
                                                  contiki-srf06-cc26xx.a(csma.o)
                                                  contiki-srf06-cc26xx.a(sicslowpan.o)
queuebuf_numfree                                  contiki-srf06-cc26xx.a(queuebuf.o)
                                                  contiki-srf06-cc26xx.a(sicslowpan.o)
queuebuf_to_packetbuf                             contiki-srf06-cc26xx.a(queuebuf.o)
                                                  contiki-srf06-cc26xx.a(contikimac.o)
                                                  contiki-srf06-cc26xx.a(sicslowpan.o)
queuebuf_update_attr_from_packetbuf               contiki-srf06-cc26xx.a(queuebuf.o)
                                                  contiki-srf06-cc26xx.a(csma.o)
queuebuf_update_from_packetbuf                    contiki-srf06-cc26xx.a(queuebuf.o)
                                                  contiki-srf06-cc26xx.a(contikimac.o)
random_init                                       contiki-srf06-cc26xx.a(random.o)
                                                  contiki-srf06-cc26xx.a(contiki-main.o)
random_rand                                       contiki-srf06-cc26xx.a(random.o)
                                                  contiki-srf06-cc26xx.a(csma.o)
                                                  contiki-srf06-cc26xx.a(framer-802154.o)
                                                  contiki-srf06-cc26xx.a(rpl-timers.o)
                                                  contiki-srf06-cc26xx.a(uip-ds6.o)
rat_offset                                        contiki-srf06-cc26xx.a(rf-core.o)
                                                  contiki-srf06-cc26xx.a(ieee-mode.o)
reed_relay_sensor                                 contiki-srf06-cc26xx.a(reed-relay.o)
                                                  contiki-srf06-cc26xx.a(sensortag-senso)
remove_ext_hdr                                    contiki-srf06-cc26xx.a(uip6.o)
                                                  contiki-srf06-cc26xx.a(tcpip.o)
request_prefix                                    border-router.co
rf_ble_beacon_process                             contiki-srf06-cc26xx.a(rf-ble.o)
rf_ble_beacond_config                             contiki-srf06-cc26xx.a(rf-ble.o)
rf_ble_beacond_start                              contiki-srf06-cc26xx.a(rf-ble.o)
rf_ble_beacond_stop                               contiki-srf06-cc26xx.a(rf-ble.o)
rf_ble_is_active                                  contiki-srf06-cc26xx.a(rf-ble.o)
                                                  contiki-srf06-cc26xx.a(ieee-mode.o)
rf_core_boot                                      contiki-srf06-cc26xx.a(rf-core.o)
                                                  contiki-srf06-cc26xx.a(rf-ble.o)
                                                  contiki-srf06-cc26xx.a(ieee-mode.o)
rf_core_cmd_done_dis                              contiki-srf06-cc26xx.a(rf-core.o)
                                                  contiki-srf06-cc26xx.a(ieee-mode.o)
rf_core_cmd_done_en                               contiki-srf06-cc26xx.a(rf-core.o)
                                                  contiki-srf06-cc26xx.a(ieee-mode.o)
rf_core_get_last_radio_op                         contiki-srf06-cc26xx.a(rf-core.o)
                                                  contiki-srf06-cc26xx.a(ieee-mode.o)
rf_core_init_radio_op                             contiki-srf06-cc26xx.a(rf-core.o)
                                                  contiki-srf06-cc26xx.a(rf-ble.o)
                                                  contiki-srf06-cc26xx.a(ieee-mode.o)
rf_core_is_accessible                             contiki-srf06-cc26xx.a(rf-core.o)
                                                  contiki-srf06-cc26xx.a(rf-ble.o)
                                                  contiki-srf06-cc26xx.a(ieee-mode.o)
rf_core_power_down                                contiki-srf06-cc26xx.a(rf-core.o)
                                                  contiki-srf06-cc26xx.a(rf-ble.o)
                                                  contiki-srf06-cc26xx.a(ieee-mode.o)
rf_core_power_up                                  contiki-srf06-cc26xx.a(rf-core.o)
rf_core_primary_mode_abort                        contiki-srf06-cc26xx.a(rf-core.o)
                                                  contiki-srf06-cc26xx.a(rf-ble.o)
rf_core_primary_mode_register                     contiki-srf06-cc26xx.a(rf-core.o)
                                                  contiki-srf06-cc26xx.a(ieee-mode.o)
rf_core_primary_mode_restore                      contiki-srf06-cc26xx.a(rf-core.o)
                                                  contiki-srf06-cc26xx.a(rf-ble.o)
rf_core_process                                   contiki-srf06-cc26xx.a(rf-core.o)
                                                  contiki-srf06-cc26xx.a(ieee-mode.o)
rf_core_restart_rat                               contiki-srf06-cc26xx.a(rf-core.o)
                                                  contiki-srf06-cc26xx.a(ieee-mode.o)
rf_core_send_cmd                                  contiki-srf06-cc26xx.a(rf-core.o)
                                                  contiki-srf06-cc26xx.a(rf-ble.o)
                                                  contiki-srf06-cc26xx.a(ieee-mode.o)
rf_core_set_modesel                               contiki-srf06-cc26xx.a(rf-core.o)
                                                  contiki-srf06-cc26xx.a(ieee-mode.o)
rf_core_setup_interrupts                          contiki-srf06-cc26xx.a(rf-core.o)
                                                  contiki-srf06-cc26xx.a(ieee-mode.o)
rf_core_start_rat                                 contiki-srf06-cc26xx.a(rf-core.o)
rf_core_stop_rat                                  contiki-srf06-cc26xx.a(rf-core.o)
rf_core_wait_cmd_done                             contiki-srf06-cc26xx.a(rf-core.o)
                                                  contiki-srf06-cc26xx.a(rf-ble.o)
                                                  contiki-srf06-cc26xx.a(ieee-mode.o)
rime_sniffer_add                                  contiki-srf06-cc26xx.a(sicslowpan.o)
rime_sniffer_remove                               contiki-srf06-cc26xx.a(sicslowpan.o)
ringbuf_elements                                  contiki-srf06-cc26xx.a(ringbuf.o)
ringbuf_get                                       contiki-srf06-cc26xx.a(ringbuf.o)
                                                  contiki-srf06-cc26xx.a(serial-line.o)
ringbuf_init                                      contiki-srf06-cc26xx.a(ringbuf.o)
                                                  contiki-srf06-cc26xx.a(serial-line.o)
ringbuf_put                                       contiki-srf06-cc26xx.a(ringbuf.o)
                                                  contiki-srf06-cc26xx.a(serial-line.o)
ringbuf_size                                      contiki-srf06-cc26xx.a(ringbuf.o)
rint                                              /usr/lib/gcc/arm-none-eabi/4.8/../../../arm-none-eabi/lib/armv7-m/libm.a(lib_a-s_rint.o)
                                                  /usr/lib/gcc/arm-none-eabi/4.8/../../../arm-none-eabi/lib/armv7-m/libm.a(lib_a-w_pow.o)
rpl_add_dag                                       contiki-srf06-cc26xx.a(rpl-dag.o)
rpl_add_parent                                    contiki-srf06-cc26xx.a(rpl-dag.o)
rpl_add_route                                     contiki-srf06-cc26xx.a(rpl.o)
                                                  contiki-srf06-cc26xx.a(rpl-icmp6.o)
rpl_alloc_dag                                     contiki-srf06-cc26xx.a(rpl-dag.o)
rpl_alloc_instance                                contiki-srf06-cc26xx.a(rpl-dag.o)
rpl_cancel_dao                                    contiki-srf06-cc26xx.a(rpl-timers.o)
                                                  contiki-srf06-cc26xx.a(rpl.o)
rpl_dag_init                                      contiki-srf06-cc26xx.a(rpl-dag.o)
                                                  contiki-srf06-cc26xx.a(rpl.o)
rpl_find_of                                       contiki-srf06-cc26xx.a(rpl-dag.o)
rpl_find_parent                                   contiki-srf06-cc26xx.a(rpl-dag.o)
                                                  contiki-srf06-cc26xx.a(rpl-icmp6.o)
rpl_find_parent_any_dag                           contiki-srf06-cc26xx.a(rpl-dag.o)
                                                  contiki-srf06-cc26xx.a(rpl.o)
rpl_free_dag                                      contiki-srf06-cc26xx.a(rpl-dag.o)
                                                  contiki-srf06-cc26xx.a(rpl.o)
rpl_free_instance                                 contiki-srf06-cc26xx.a(rpl-dag.o)
rpl_get_any_dag                                   contiki-srf06-cc26xx.a(rpl-dag.o)
                                                  contiki-srf06-cc26xx.a(rpl-timers.o)
rpl_get_dag                                       contiki-srf06-cc26xx.a(rpl-dag.o)
rpl_get_default_instance                          contiki-srf06-cc26xx.a(rpl-dag.o)
rpl_get_instance                                  contiki-srf06-cc26xx.a(rpl-dag.o)
                                                  contiki-srf06-cc26xx.a(rpl-nbr-policy.)
                                                  contiki-srf06-cc26xx.a(rpl-icmp6.o)
                                                  contiki-srf06-cc26xx.a(rpl-ext-header.)
rpl_get_mode                                      contiki-srf06-cc26xx.a(rpl.o)
                                                  contiki-srf06-cc26xx.a(rpl-icmp6.o)
                                                  contiki-srf06-cc26xx.a(rpl-timers.o)
rpl_get_nbr                                       contiki-srf06-cc26xx.a(rpl-dag.o)
rpl_get_parent                                    contiki-srf06-cc26xx.a(rpl-dag.o)
                                                  contiki-srf06-cc26xx.a(rpl-nbr-policy.)
                                                  contiki-srf06-cc26xx.a(rpl-ext-header.)
rpl_get_parent_ipaddr                             contiki-srf06-cc26xx.a(rpl-dag.o)
                                                  contiki-srf06-cc26xx.a(rpl-icmp6.o)
                                                  contiki-srf06-cc26xx.a(rpl-timers.o)
rpl_get_parent_link_metric                        contiki-srf06-cc26xx.a(rpl-dag.o)
rpl_get_parent_link_stats                         contiki-srf06-cc26xx.a(rpl-dag.o)
                                                  contiki-srf06-cc26xx.a(rpl-mrhof.o)
                                                  contiki-srf06-cc26xx.a(rpl-timers.o)
rpl_get_parent_lladdr                             contiki-srf06-cc26xx.a(rpl-dag.o)
rpl_get_parent_rank                               contiki-srf06-cc26xx.a(rpl-dag.o)
rpl_has_downward_route                            contiki-srf06-cc26xx.a(rpl-dag.o)
rpl_icmp6_register_handlers                       contiki-srf06-cc26xx.a(rpl-icmp6.o)
                                                  contiki-srf06-cc26xx.a(rpl.o)
rpl_icmp6_update_nbr_table                        contiki-srf06-cc26xx.a(rpl-icmp6.o)
                                                  contiki-srf06-cc26xx.a(rpl-dag.o)
rpl_init                                          contiki-srf06-cc26xx.a(rpl.o)
                                                  contiki-srf06-cc26xx.a(tcpip.o)
rpl_interface                                     obj_srf06-cc26xx/slip-bridge.o
                                                  contiki-srf06-cc26xx.a(tcpip.o)
rpl_ipv6_neighbor_callback                        contiki-srf06-cc26xx.a(rpl.o)
                                                  contiki-srf06-cc26xx.a(uip-ds6-nbr.o)
rpl_join_instance                                 contiki-srf06-cc26xx.a(rpl-dag.o)
rpl_link_neighbor_callback                        contiki-srf06-cc26xx.a(rpl.o)
                                                  contiki-srf06-cc26xx.a(uip-ds6-nbr.o)
rpl_local_repair                                  contiki-srf06-cc26xx.a(rpl-dag.o)
rpl_move_parent                                   contiki-srf06-cc26xx.a(rpl-dag.o)
rpl_mrhof                                         contiki-srf06-cc26xx.a(rpl-mrhof.o)
                                                  contiki-srf06-cc26xx.a(rpl-dag.o)
rpl_nbr_policy_find_removable                     contiki-srf06-cc26xx.a(rpl-nbr-policy.)
                                                  contiki-srf06-cc26xx.a(nbr-table.o)
rpl_nullify_parent                                contiki-srf06-cc26xx.a(rpl-dag.o)
rpl_parent_is_fresh                               contiki-srf06-cc26xx.a(rpl-dag.o)
                                                  contiki-srf06-cc26xx.a(rpl-timers.o)
rpl_parent_is_reachable                           contiki-srf06-cc26xx.a(rpl-dag.o)
rpl_parents                                       contiki-srf06-cc26xx.a(rpl-dag.o)
                                                  contiki-srf06-cc26xx.a(rpl-ext-header.)
                                                  contiki-srf06-cc26xx.a(rpl-timers.o)
rpl_print_neighbor_list                           contiki-srf06-cc26xx.a(rpl-dag.o)
rpl_process_dio                                   contiki-srf06-cc26xx.a(rpl-dag.o)
                                                  contiki-srf06-cc26xx.a(rpl-icmp6.o)
rpl_process_parent_event                          contiki-srf06-cc26xx.a(rpl-dag.o)
rpl_purge_dags                                    contiki-srf06-cc26xx.a(rpl.o)
                                                  contiki-srf06-cc26xx.a(rpl-timers.o)
rpl_purge_routes                                  contiki-srf06-cc26xx.a(rpl.o)
                                                  contiki-srf06-cc26xx.a(rpl-timers.o)
rpl_rank_via_parent                               contiki-srf06-cc26xx.a(rpl-dag.o)
                                                  contiki-srf06-cc26xx.a(rpl-timers.o)
rpl_recalculate_ranks                             contiki-srf06-cc26xx.a(rpl-dag.o)
                                                  contiki-srf06-cc26xx.a(rpl-timers.o)
rpl_remove_header                                 contiki-srf06-cc26xx.a(rpl-ext-header.)
                                                  contiki-srf06-cc26xx.a(uip-icmp6.o)
rpl_remove_parent                                 contiki-srf06-cc26xx.a(rpl-dag.o)
rpl_remove_routes                                 contiki-srf06-cc26xx.a(rpl.o)
                                                  contiki-srf06-cc26xx.a(rpl-dag.o)
rpl_remove_routes_by_nexthop                      contiki-srf06-cc26xx.a(rpl.o)
                                                  contiki-srf06-cc26xx.a(rpl-dag.o)
rpl_repair_root                                   contiki-srf06-cc26xx.a(rpl-dag.o)
                                                  contiki-srf06-cc26xx.a(tcpip.o)
                                                  border-router.co
rpl_reset_dio_timer                               contiki-srf06-cc26xx.a(rpl-timers.o)
                                                  contiki-srf06-cc26xx.a(rpl-icmp6.o)
                                                  contiki-srf06-cc26xx.a(rpl-ext-header.)
                                                  contiki-srf06-cc26xx.a(rpl-dag.o)
rpl_reset_periodic_timer                          contiki-srf06-cc26xx.a(rpl-timers.o)
                                                  contiki-srf06-cc26xx.a(rpl.o)
rpl_schedule_dao                                  contiki-srf06-cc26xx.a(rpl-timers.o)
                                                  contiki-srf06-cc26xx.a(rpl-dag.o)
rpl_schedule_dao_immediately                      contiki-srf06-cc26xx.a(rpl-timers.o)
                                                  contiki-srf06-cc26xx.a(rpl.o)
rpl_schedule_probing                              contiki-srf06-cc26xx.a(rpl-timers.o)
                                                  contiki-srf06-cc26xx.a(rpl-dag.o)
rpl_schedule_unicast_dio_immediately              contiki-srf06-cc26xx.a(rpl-timers.o)
                                                  contiki-srf06-cc26xx.a(rpl-ext-header.)
rpl_select_dag                                    contiki-srf06-cc26xx.a(rpl-dag.o)
rpl_select_parent                                 contiki-srf06-cc26xx.a(rpl-dag.o)
rpl_set_default_instance                          contiki-srf06-cc26xx.a(rpl-dag.o)
rpl_set_default_route                             contiki-srf06-cc26xx.a(rpl-dag.o)
rpl_set_mode                                      contiki-srf06-cc26xx.a(rpl.o)
rpl_set_prefix                                    contiki-srf06-cc26xx.a(rpl-dag.o)
                                                  border-router.co
rpl_set_root                                      contiki-srf06-cc26xx.a(rpl-dag.o)
                                                  border-router.co
rpl_update_header                                 contiki-srf06-cc26xx.a(rpl-ext-header.)
                                                  contiki-srf06-cc26xx.a(tcpip.o)
rpl_verify_hbh_header                             contiki-srf06-cc26xx.a(rpl-ext-header.)
                                                  contiki-srf06-cc26xx.a(uip6.o)
rtimer_arch_init                                  contiki-srf06-cc26xx.a(rtimer-arch.o)
                                                  contiki-srf06-cc26xx.a(rtimer.o)
rtimer_arch_now                                   contiki-srf06-cc26xx.a(rtimer-arch.o)
                                                  contiki-srf06-cc26xx.a(contikimac.o)
                                                  contiki-srf06-cc26xx.a(ieee-mode.o)
                                                  contiki-srf06-cc26xx.a(lpm.o)
                                                  contiki-srf06-cc26xx.a(soc-rtc.o)
                                                  contiki-srf06-cc26xx.a(mpu-9250-sensor)
rtimer_arch_schedule                              contiki-srf06-cc26xx.a(rtimer-arch.o)
                                                  contiki-srf06-cc26xx.a(rtimer.o)
rtimer_init                                       contiki-srf06-cc26xx.a(rtimer.o)
                                                  contiki-srf06-cc26xx.a(contiki-main.o)
rtimer_run_next                                   contiki-srf06-cc26xx.a(rtimer.o)
                                                  contiki-srf06-cc26xx.a(soc-rtc.o)
rtimer_set                                        contiki-srf06-cc26xx.a(rtimer.o)
                                                  contiki-srf06-cc26xx.a(contikimac.o)
scalbn                                            /usr/lib/gcc/arm-none-eabi/4.8/../../../arm-none-eabi/lib/armv7-m/libm.a(lib_a-s_scalbn.o)
                                                  /usr/lib/gcc/arm-none-eabi/4.8/../../../arm-none-eabi/lib/armv7-m/libm.a(lib_a-e_pow.o)
sensor_common_read_reg                            contiki-srf06-cc26xx.a(sensor-common.o)
                                                  contiki-srf06-cc26xx.a(mpu-9250-sensor)
                                                  contiki-srf06-cc26xx.a(opt-3001-sensor)
                                                  contiki-srf06-cc26xx.a(tmp-007-sensor.)
                                                  contiki-srf06-cc26xx.a(bmp-280-sensor.)
sensor_common_set_error_data                      contiki-srf06-cc26xx.a(sensor-common.o)
                                                  contiki-srf06-cc26xx.a(mpu-9250-sensor)
                                                  contiki-srf06-cc26xx.a(opt-3001-sensor)
                                                  contiki-srf06-cc26xx.a(tmp-007-sensor.)
                                                  contiki-srf06-cc26xx.a(bmp-280-sensor.)
sensor_common_write_reg                           contiki-srf06-cc26xx.a(sensor-common.o)
                                                  contiki-srf06-cc26xx.a(mpu-9250-sensor)
                                                  contiki-srf06-cc26xx.a(hdc-1000-sensor)
                                                  contiki-srf06-cc26xx.a(opt-3001-sensor)
                                                  contiki-srf06-cc26xx.a(tmp-007-sensor.)
                                                  contiki-srf06-cc26xx.a(bmp-280-sensor.)
sensors                                           contiki-srf06-cc26xx.a(sensortag-senso)
                                                  contiki-srf06-cc26xx.a(sensors.o)
sensors_changed                                   contiki-srf06-cc26xx.a(sensors.o)
                                                  contiki-srf06-cc26xx.a(reed-relay.o)
                                                  contiki-srf06-cc26xx.a(button-sensor.o)
                                                  contiki-srf06-cc26xx.a(mpu-9250-sensor)
                                                  contiki-srf06-cc26xx.a(hdc-1000-sensor)
                                                  contiki-srf06-cc26xx.a(opt-3001-sensor)
                                                  contiki-srf06-cc26xx.a(tmp-007-sensor.)
                                                  contiki-srf06-cc26xx.a(bmp-280-sensor.)
sensors_event                                     contiki-srf06-cc26xx.a(sensors.o)
                                                  border-router.co
sensors_find                                      contiki-srf06-cc26xx.a(sensors.o)
sensors_first                                     contiki-srf06-cc26xx.a(sensors.o)
sensors_flags                                     contiki-srf06-cc26xx.a(sensortag-senso)
                                                  contiki-srf06-cc26xx.a(sensors.o)
sensors_next                                      contiki-srf06-cc26xx.a(sensors.o)
sensors_process                                   contiki-srf06-cc26xx.a(sensors.o)
                                                  contiki-srf06-cc26xx.a(contiki-main.o)
serial_line_event_message                         contiki-srf06-cc26xx.a(serial-line.o)
serial_line_init                                  contiki-srf06-cc26xx.a(serial-line.o)
                                                  contiki-srf06-cc26xx.a(contiki-main.o)
serial_line_input_byte                            contiki-srf06-cc26xx.a(serial-line.o)
serial_line_process                               contiki-srf06-cc26xx.a(serial-line.o)
set_prefix_64                                     border-router.co
                                                  obj_srf06-cc26xx/slip-bridge.o
sicslowpan_driver                                 contiki-srf06-cc26xx.a(sicslowpan.o)
                                                  contiki-srf06-cc26xx.a(nullsec.o)
                                                  contiki-srf06-cc26xx.a(netstack.o)
                                                  contiki-srf06-cc26xx.a(contiki-main.o)
sicslowpan_get_last_rssi                          contiki-srf06-cc26xx.a(sicslowpan.o)
sicslowpan_init                                   contiki-srf06-cc26xx.a(sicslowpan.o)
slip_active                                       contiki-srf06-cc26xx.a(slip.o)
slip_arch_init                                    contiki-srf06-cc26xx.a(slip-arch.o)
                                                  obj_srf06-cc26xx/slip-bridge.o
slip_arch_writeb                                  contiki-srf06-cc26xx.a(slip-arch.o)
                                                  contiki-srf06-cc26xx.a(slip.o)
slip_input_byte                                   contiki-srf06-cc26xx.a(slip.o)
                                                  contiki-srf06-cc26xx.a(slip-arch.o)
slip_process                                      contiki-srf06-cc26xx.a(slip.o)
                                                  obj_srf06-cc26xx/slip-bridge.o
slip_send                                         contiki-srf06-cc26xx.a(slip.o)
                                                  obj_srf06-cc26xx/slip-bridge.o
                                                  border-router.co
slip_set_input_callback                           contiki-srf06-cc26xx.a(slip.o)
                                                  obj_srf06-cc26xx/slip-bridge.o
slip_write                                        contiki-srf06-cc26xx.a(slip.o)
soc_rtc_get_next_trigger                          contiki-srf06-cc26xx.a(soc-rtc.o)
soc_rtc_init                                      contiki-srf06-cc26xx.a(soc-rtc.o)
                                                  contiki-srf06-cc26xx.a(contiki-main.o)
soc_rtc_last_isr_time                             contiki-srf06-cc26xx.a(soc-rtc.o)
                                                  contiki-srf06-cc26xx.a(lpm.o)
soc_rtc_schedule_one_shot                         contiki-srf06-cc26xx.a(soc-rtc.o)
                                                  contiki-srf06-cc26xx.a(lpm.o)
                                                  contiki-srf06-cc26xx.a(rtimer-arch.o)
soc_trng_init                                     contiki-srf06-cc26xx.a(soc-trng.o)
                                                  contiki-srf06-cc26xx.a(random.o)
soc_trng_process                                  contiki-srf06-cc26xx.a(soc-trng.o)
soc_trng_rand_asynchronous                        contiki-srf06-cc26xx.a(soc-trng.o)
soc_trng_rand_synchronous                         contiki-srf06-cc26xx.a(soc-trng.o)
                                                  contiki-srf06-cc26xx.a(random.o)
stimer_elapsed                                    contiki-srf06-cc26xx.a(stimer.o)
stimer_expired                                    contiki-srf06-cc26xx.a(stimer.o)
                                                  contiki-srf06-cc26xx.a(uip-ds6-route.o)
                                                  contiki-srf06-cc26xx.a(uip-ds6.o)
stimer_remaining                                  contiki-srf06-cc26xx.a(stimer.o)
stimer_reset                                      contiki-srf06-cc26xx.a(stimer.o)
stimer_restart                                    contiki-srf06-cc26xx.a(stimer.o)
stimer_set                                        contiki-srf06-cc26xx.a(stimer.o)
                                                  contiki-srf06-cc26xx.a(uip-ds6-route.o)
                                                  contiki-srf06-cc26xx.a(uip-ds6.o)
strlen                                            /usr/lib/gcc/arm-none-eabi/4.8/../../../arm-none-eabi/lib/armv7-m/libc.a(lib_a-strlen.o)
                                                  contiki-srf06-cc26xx.a(rf-ble.o)
                                                  contiki-srf06-cc26xx.a(putchar.o)
                                                  contiki-srf06-cc26xx.a(sensors.o)
strncmp                                           /usr/lib/gcc/arm-none-eabi/4.8/../../../arm-none-eabi/lib/armv7-m/libc.a(lib_a-strncmp.o)
                                                  contiki-srf06-cc26xx.a(sensors.o)
t0                                                contiki-srf06-cc26xx.a(mpu-9250-sensor)
tcp_attach                                        contiki-srf06-cc26xx.a(tcpip.o)
tcp_connect                                       contiki-srf06-cc26xx.a(tcpip.o)
tcp_listen                                        contiki-srf06-cc26xx.a(tcpip.o)
tcp_unlisten                                      contiki-srf06-cc26xx.a(tcpip.o)
tcpip_event                                       contiki-srf06-cc26xx.a(tcpip.o)
tcpip_icmp6_call                                  contiki-srf06-cc26xx.a(tcpip.o)
                                                  contiki-srf06-cc26xx.a(uip6.o)
tcpip_icmp6_event                                 contiki-srf06-cc26xx.a(tcpip.o)
tcpip_input                                       contiki-srf06-cc26xx.a(tcpip.o)
                                                  contiki-srf06-cc26xx.a(sicslowpan.o)
                                                  contiki-srf06-cc26xx.a(slip.o)
tcpip_ipv6_output                                 contiki-srf06-cc26xx.a(tcpip.o)
                                                  contiki-srf06-cc26xx.a(uip-icmp6.o)
tcpip_output                                      contiki-srf06-cc26xx.a(tcpip.o)
tcpip_poll_tcp                                    contiki-srf06-cc26xx.a(tcpip.o)
tcpip_poll_udp                                    contiki-srf06-cc26xx.a(tcpip.o)
tcpip_process                                     contiki-srf06-cc26xx.a(tcpip.o)
                                                  contiki-srf06-cc26xx.a(contiki-main.o)
tcpip_set_outputfunc                              contiki-srf06-cc26xx.a(tcpip.o)
                                                  contiki-srf06-cc26xx.a(sicslowpan.o)
tcpip_uipcall                                     contiki-srf06-cc26xx.a(tcpip.o)
                                                  contiki-srf06-cc26xx.a(uip6.o)
timer_expired                                     contiki-srf06-cc26xx.a(timer.o)
                                                  contiki-srf06-cc26xx.a(sicslowpan.o)
                                                  contiki-srf06-cc26xx.a(etimer.o)
                                                  contiki-srf06-cc26xx.a(reed-relay.o)
                                                  contiki-srf06-cc26xx.a(button-sensor.o)
timer_remaining                                   contiki-srf06-cc26xx.a(timer.o)
timer_reset                                       contiki-srf06-cc26xx.a(timer.o)
                                                  contiki-srf06-cc26xx.a(etimer.o)
timer_restart                                     contiki-srf06-cc26xx.a(timer.o)
                                                  contiki-srf06-cc26xx.a(etimer.o)
timer_set                                         contiki-srf06-cc26xx.a(timer.o)
                                                  contiki-srf06-cc26xx.a(sicslowpan.o)
                                                  contiki-srf06-cc26xx.a(etimer.o)
                                                  contiki-srf06-cc26xx.a(reed-relay.o)
                                                  contiki-srf06-cc26xx.a(button-sensor.o)
tmp_007_sensor                                    contiki-srf06-cc26xx.a(tmp-007-sensor.)
                                                  contiki-srf06-cc26xx.a(board.o)
                                                  contiki-srf06-cc26xx.a(sensortag-senso)
tx_power_current                                  contiki-srf06-cc26xx.a(ieee-mode.o)
uDMAErrIntHandler                                 obj_srf06-cc26xx/startup_gcc.o
uDMAIntHandler                                    obj_srf06-cc26xx/startup_gcc.o
udp_attach                                        contiki-srf06-cc26xx.a(tcpip.o)
udp_broadcast_new                                 contiki-srf06-cc26xx.a(tcpip.o)
udp_new                                           contiki-srf06-cc26xx.a(tcpip.o)
uip_acc32                                         contiki-srf06-cc26xx.a(uip6.o)
uip_add32                                         contiki-srf06-cc26xx.a(uip6.o)
uip_aligned_buf                                   contiki-srf06-cc26xx.a(uip6.o)
                                                  contiki-srf06-cc26xx.a(rpl-nbr-policy.)
                                                  contiki-srf06-cc26xx.a(uip-icmp6.o)
                                                  contiki-srf06-cc26xx.a(rpl-icmp6.o)
                                                  contiki-srf06-cc26xx.a(rpl-ext-header.)
                                                  contiki-srf06-cc26xx.a(tcpip.o)
                                                  contiki-srf06-cc26xx.a(sicslowpan.o)
                                                  contiki-srf06-cc26xx.a(uip-nd6.o)
                                                  contiki-srf06-cc26xx.a(slip.o)
                                                  obj_srf06-cc26xx/slip-bridge.o
                                                  border-router.co
uip_appdata                                       contiki-srf06-cc26xx.a(uip6.o)
uip_chksum                                        contiki-srf06-cc26xx.a(uip6.o)
uip_conn                                          contiki-srf06-cc26xx.a(uip6.o)
                                                  contiki-srf06-cc26xx.a(tcpip.o)
uip_connect                                       contiki-srf06-cc26xx.a(uip6.o)
                                                  contiki-srf06-cc26xx.a(tcpip.o)
uip_conns                                         contiki-srf06-cc26xx.a(uip6.o)
                                                  contiki-srf06-cc26xx.a(tcpip.o)
uip_debug_ipaddr_print                            contiki-srf06-cc26xx.a(uip-debug.o)
                                                  contiki-srf06-cc26xx.a(rpl.o)
                                                  contiki-srf06-cc26xx.a(uip-ds6-route.o)
                                                  obj_srf06-cc26xx/slip-bridge.o
                                                  border-router.co
uip_ds6_aaddr_add                                 contiki-srf06-cc26xx.a(uip-ds6.o)
uip_ds6_aaddr_lookup                              contiki-srf06-cc26xx.a(uip-ds6.o)
uip_ds6_aaddr_rm                                  contiki-srf06-cc26xx.a(uip-ds6.o)
uip_ds6_addr_add                                  contiki-srf06-cc26xx.a(uip-ds6.o)
                                                  contiki-srf06-cc26xx.a(rpl-dag.o)
                                                  border-router.co
uip_ds6_addr_lookup                               contiki-srf06-cc26xx.a(uip-ds6.o)
                                                  contiki-srf06-cc26xx.a(rpl-ext-header.)
                                                  contiki-srf06-cc26xx.a(rpl-dag.o)
                                                  contiki-srf06-cc26xx.a(uip-nd6.o)
                                                  contiki-srf06-cc26xx.a(uip6.o)
uip_ds6_addr_rm                                   contiki-srf06-cc26xx.a(uip-ds6.o)
                                                  contiki-srf06-cc26xx.a(rpl-dag.o)
uip_ds6_addr_size                                 contiki-srf06-cc26xx.a(uip-ds6.o)
uip_ds6_compute_reachable_time                    contiki-srf06-cc26xx.a(uip-ds6.o)
uip_ds6_defrt_add                                 contiki-srf06-cc26xx.a(uip-ds6-route.o)
                                                  contiki-srf06-cc26xx.a(rpl-dag.o)
uip_ds6_defrt_choose                              contiki-srf06-cc26xx.a(uip-ds6-route.o)
                                                  contiki-srf06-cc26xx.a(tcpip.o)
uip_ds6_defrt_head                                contiki-srf06-cc26xx.a(uip-ds6-route.o)
uip_ds6_defrt_lookup                              contiki-srf06-cc26xx.a(uip-ds6-route.o)
uip_ds6_defrt_periodic                            contiki-srf06-cc26xx.a(uip-ds6-route.o)
                                                  contiki-srf06-cc26xx.a(uip-ds6.o)
uip_ds6_defrt_rm                                  contiki-srf06-cc26xx.a(uip-ds6-route.o)
                                                  contiki-srf06-cc26xx.a(rpl-dag.o)
uip_ds6_get_global                                contiki-srf06-cc26xx.a(uip-ds6.o)
uip_ds6_get_link_local                            contiki-srf06-cc26xx.a(uip-ds6.o)
                                                  contiki-srf06-cc26xx.a(rpl-timers.o)
uip_ds6_if                                        contiki-srf06-cc26xx.a(uip-ds6.o)
                                                  contiki-srf06-cc26xx.a(uip-icmp6.o)
                                                  contiki-srf06-cc26xx.a(rpl-icmp6.o)
                                                  contiki-srf06-cc26xx.a(rpl-ext-header.)
                                                  contiki-srf06-cc26xx.a(uip6.o)
                                                  border-router.co
uip_ds6_init                                      contiki-srf06-cc26xx.a(uip-ds6.o)
                                                  contiki-srf06-cc26xx.a(uip6.o)
uip_ds6_is_addr_onlink                            contiki-srf06-cc26xx.a(uip-ds6.o)
                                                  contiki-srf06-cc26xx.a(tcpip.o)
                                                  contiki-srf06-cc26xx.a(uip6.o)
uip_ds6_link_neighbor_callback                    contiki-srf06-cc26xx.a(uip-ds6-nbr.o)
                                                  contiki-srf06-cc26xx.a(sicslowpan.o)
uip_ds6_list_loop                                 contiki-srf06-cc26xx.a(uip-ds6.o)
uip_ds6_maddr_add                                 contiki-srf06-cc26xx.a(uip-ds6.o)
                                                  contiki-srf06-cc26xx.a(rpl.o)
uip_ds6_maddr_lookup                              contiki-srf06-cc26xx.a(uip-ds6.o)
                                                  contiki-srf06-cc26xx.a(uip6.o)
uip_ds6_maddr_rm                                  contiki-srf06-cc26xx.a(uip-ds6.o)
uip_ds6_nbr_add                                   contiki-srf06-cc26xx.a(uip-ds6-nbr.o)
                                                  contiki-srf06-cc26xx.a(rpl-icmp6.o)
                                                  contiki-srf06-cc26xx.a(uip-nd6.o)
uip_ds6_nbr_get_ipaddr                            contiki-srf06-cc26xx.a(uip-ds6-nbr.o)
uip_ds6_nbr_get_ll                                contiki-srf06-cc26xx.a(uip-ds6-nbr.o)
                                                  contiki-srf06-cc26xx.a(rpl-dag.o)
                                                  contiki-srf06-cc26xx.a(tcpip.o)
                                                  contiki-srf06-cc26xx.a(uip-nd6.o)
uip_ds6_nbr_ipaddr_from_lladdr                    contiki-srf06-cc26xx.a(uip-ds6-nbr.o)
                                                  contiki-srf06-cc26xx.a(rpl-dag.o)
                                                  contiki-srf06-cc26xx.a(uip-ds6-route.o)
uip_ds6_nbr_ll_lookup                             contiki-srf06-cc26xx.a(uip-ds6-nbr.o)
uip_ds6_nbr_lladdr_from_ipaddr                    contiki-srf06-cc26xx.a(uip-ds6-nbr.o)
                                                  contiki-srf06-cc26xx.a(rpl-dag.o)
                                                  contiki-srf06-cc26xx.a(uip-ds6-route.o)
uip_ds6_nbr_lookup                                contiki-srf06-cc26xx.a(uip-ds6-nbr.o)
                                                  contiki-srf06-cc26xx.a(rpl-icmp6.o)
                                                  contiki-srf06-cc26xx.a(rpl-dag.o)
                                                  contiki-srf06-cc26xx.a(tcpip.o)
                                                  contiki-srf06-cc26xx.a(uip-nd6.o)
                                                  contiki-srf06-cc26xx.a(uip-ds6-route.o)
uip_ds6_nbr_num                                   contiki-srf06-cc26xx.a(uip-ds6-nbr.o)
                                                  contiki-srf06-cc26xx.a(rpl-dag.o)
uip_ds6_nbr_rm                                    contiki-srf06-cc26xx.a(uip-ds6-nbr.o)
uip_ds6_neighbors_init                            contiki-srf06-cc26xx.a(uip-ds6-nbr.o)
                                                  contiki-srf06-cc26xx.a(uip-ds6.o)
uip_ds6_netif_addr_list_offset                    contiki-srf06-cc26xx.a(uip-ds6.o)
uip_ds6_notification_add                          contiki-srf06-cc26xx.a(uip-ds6-route.o)
uip_ds6_notification_rm                           contiki-srf06-cc26xx.a(uip-ds6-route.o)
uip_ds6_periodic                                  contiki-srf06-cc26xx.a(uip-ds6.o)
                                                  contiki-srf06-cc26xx.a(tcpip.o)
uip_ds6_prefix_add                                contiki-srf06-cc26xx.a(uip-ds6.o)
uip_ds6_prefix_list                               contiki-srf06-cc26xx.a(uip-ds6.o)
uip_ds6_prefix_lookup                             contiki-srf06-cc26xx.a(uip-ds6.o)
uip_ds6_prefix_rm                                 contiki-srf06-cc26xx.a(uip-ds6.o)
uip_ds6_route_add                                 contiki-srf06-cc26xx.a(uip-ds6-route.o)
                                                  contiki-srf06-cc26xx.a(rpl.o)
uip_ds6_route_head                                contiki-srf06-cc26xx.a(uip-ds6-route.o)
                                                  contiki-srf06-cc26xx.a(rpl.o)
uip_ds6_route_init                                contiki-srf06-cc26xx.a(uip-ds6-route.o)
                                                  contiki-srf06-cc26xx.a(uip-ds6.o)
uip_ds6_route_is_nexthop                          contiki-srf06-cc26xx.a(uip-ds6-route.o)
                                                  contiki-srf06-cc26xx.a(rpl-nbr-policy.)
                                                  contiki-srf06-cc26xx.a(rpl-dag.o)
uip_ds6_route_lookup                              contiki-srf06-cc26xx.a(uip-ds6-route.o)
                                                  contiki-srf06-cc26xx.a(rpl-icmp6.o)
                                                  contiki-srf06-cc26xx.a(rpl-ext-header.)
                                                  contiki-srf06-cc26xx.a(tcpip.o)
uip_ds6_route_next                                contiki-srf06-cc26xx.a(uip-ds6-route.o)
                                                  contiki-srf06-cc26xx.a(rpl.o)
uip_ds6_route_nexthop                             contiki-srf06-cc26xx.a(uip-ds6-route.o)
                                                  contiki-srf06-cc26xx.a(rpl-icmp6.o)
                                                  contiki-srf06-cc26xx.a(rpl.o)
                                                  contiki-srf06-cc26xx.a(tcpip.o)
uip_ds6_route_num_routes                          contiki-srf06-cc26xx.a(uip-ds6-route.o)
uip_ds6_route_rm                                  contiki-srf06-cc26xx.a(uip-ds6-route.o)
                                                  contiki-srf06-cc26xx.a(rpl.o)
                                                  contiki-srf06-cc26xx.a(rpl-ext-header.)
                                                  contiki-srf06-cc26xx.a(tcpip.o)
uip_ds6_route_rm_by_nexthop                       contiki-srf06-cc26xx.a(uip-ds6-route.o)
uip_ds6_select_src                                contiki-srf06-cc26xx.a(uip-ds6.o)
                                                  contiki-srf06-cc26xx.a(uip-icmp6.o)
                                                  contiki-srf06-cc26xx.a(uip6.o)
uip_ds6_set_addr_iid                              contiki-srf06-cc26xx.a(uip-ds6.o)
                                                  contiki-srf06-cc26xx.a(rpl.o)
                                                  contiki-srf06-cc26xx.a(rpl-dag.o)
                                                  contiki-srf06-cc26xx.a(sicslowpan.o)
                                                  border-router.co
uip_ds6_timer_periodic                            contiki-srf06-cc26xx.a(uip-ds6.o)
                                                  contiki-srf06-cc26xx.a(tcpip.o)
uip_ds6_timer_ra                                  contiki-srf06-cc26xx.a(uip-ds6.o)
uip_ext_bitmap                                    contiki-srf06-cc26xx.a(uip6.o)
uip_ext_len                                       contiki-srf06-cc26xx.a(uip6.o)
                                                  contiki-srf06-cc26xx.a(uip-icmp6.o)
                                                  contiki-srf06-cc26xx.a(rpl-icmp6.o)
                                                  contiki-srf06-cc26xx.a(rpl-ext-header.)
                                                  contiki-srf06-cc26xx.a(tcpip.o)
                                                  contiki-srf06-cc26xx.a(uip-nd6.o)
                                                  obj_srf06-cc26xx/slip-bridge.o
                                                  border-router.co
uip_ext_opt_offset                                contiki-srf06-cc26xx.a(uip6.o)
uip_flags                                         contiki-srf06-cc26xx.a(uip6.o)
                                                  contiki-srf06-cc26xx.a(tcpip.o)
uip_htonl                                         contiki-srf06-cc26xx.a(uip6.o)
                                                  contiki-srf06-cc26xx.a(uip-icmp6.o)
uip_htons                                         contiki-srf06-cc26xx.a(uip6.o)
uip_icmp6_conns                                   contiki-srf06-cc26xx.a(uip6.o)
                                                  contiki-srf06-cc26xx.a(tcpip.o)
uip_icmp6_echo_reply_callback_add                 contiki-srf06-cc26xx.a(uip-icmp6.o)
uip_icmp6_echo_reply_callback_rm                  contiki-srf06-cc26xx.a(uip-icmp6.o)
uip_icmp6_error_output                            contiki-srf06-cc26xx.a(uip-icmp6.o)
                                                  contiki-srf06-cc26xx.a(tcpip.o)
                                                  contiki-srf06-cc26xx.a(uip6.o)
uip_icmp6_init                                    contiki-srf06-cc26xx.a(uip-icmp6.o)
                                                  contiki-srf06-cc26xx.a(uip6.o)
uip_icmp6_input                                   contiki-srf06-cc26xx.a(uip-icmp6.o)
                                                  contiki-srf06-cc26xx.a(uip6.o)
uip_icmp6_register_input_handler                  contiki-srf06-cc26xx.a(uip-icmp6.o)
                                                  contiki-srf06-cc26xx.a(rpl-icmp6.o)
                                                  contiki-srf06-cc26xx.a(uip-nd6.o)
uip_icmp6_send                                    contiki-srf06-cc26xx.a(uip-icmp6.o)
                                                  contiki-srf06-cc26xx.a(rpl-icmp6.o)
uip_icmp6chksum                                   contiki-srf06-cc26xx.a(uip6.o)
                                                  contiki-srf06-cc26xx.a(uip-icmp6.o)
                                                  contiki-srf06-cc26xx.a(uip-nd6.o)
uip_init                                          contiki-srf06-cc26xx.a(uip6.o)
                                                  contiki-srf06-cc26xx.a(tcpip.o)
uip_ipchksum                                      contiki-srf06-cc26xx.a(uip6.o)
uip_len                                           contiki-srf06-cc26xx.a(uip6.o)
                                                  contiki-srf06-cc26xx.a(uip-icmp6.o)
                                                  contiki-srf06-cc26xx.a(rpl-icmp6.o)
                                                  contiki-srf06-cc26xx.a(rpl-ext-header.)
                                                  contiki-srf06-cc26xx.a(tcpip.o)
                                                  contiki-srf06-cc26xx.a(sicslowpan.o)
                                                  contiki-srf06-cc26xx.a(uip-nd6.o)
                                                  contiki-srf06-cc26xx.a(slip.o)
                                                  obj_srf06-cc26xx/slip-bridge.o
                                                  border-router.co
uip_listen                                        contiki-srf06-cc26xx.a(uip6.o)
                                                  contiki-srf06-cc26xx.a(tcpip.o)
uip_listenports                                   contiki-srf06-cc26xx.a(uip6.o)
uip_lladdr                                        contiki-srf06-cc26xx.a(uip6.o)
                                                  contiki-srf06-cc26xx.a(rpl-dag.o)
                                                  contiki-srf06-cc26xx.a(sicslowpan.o)
                                                  contiki-srf06-cc26xx.a(uip-nd6.o)
                                                  contiki-srf06-cc26xx.a(uip-ds6.o)
                                                  contiki-srf06-cc26xx.a(contiki-main.o)
                                                  obj_srf06-cc26xx/slip-bridge.o
                                                  border-router.co
uip_nd6_init                                      contiki-srf06-cc26xx.a(uip-nd6.o)
                                                  contiki-srf06-cc26xx.a(uip6.o)
uip_next_hdr                                      contiki-srf06-cc26xx.a(uip6.o)
uip_process                                       contiki-srf06-cc26xx.a(uip6.o)
                                                  contiki-srf06-cc26xx.a(tcpip.o)
uip_sappdata                                      contiki-srf06-cc26xx.a(uip6.o)
uip_send                                          contiki-srf06-cc26xx.a(uip6.o)
uip_slen                                          contiki-srf06-cc26xx.a(uip6.o)
uip_tcpchksum                                     contiki-srf06-cc26xx.a(uip6.o)
uip_udp_conn                                      contiki-srf06-cc26xx.a(uip6.o)
                                                  contiki-srf06-cc26xx.a(tcpip.o)
uip_udp_conns                                     contiki-srf06-cc26xx.a(uip6.o)
                                                  contiki-srf06-cc26xx.a(tcpip.o)
uip_udp_new                                       contiki-srf06-cc26xx.a(uip6.o)
                                                  contiki-srf06-cc26xx.a(tcpip.o)
uip_udpchksum                                     contiki-srf06-cc26xx.a(uip6.o)
uip_unlisten                                      contiki-srf06-cc26xx.a(uip6.o)
                                                  contiki-srf06-cc26xx.a(tcpip.o)
unc_ctxconf                                       contiki-srf06-cc26xx.a(sicslowpan.o)
unc_llconf                                        contiki-srf06-cc26xx.a(sicslowpan.o)
unc_mxconf                                        contiki-srf06-cc26xx.a(sicslowpan.o)
watchdog_init                                     contiki-srf06-cc26xx.a(contiki-watchdo)
                                                  contiki-srf06-cc26xx.a(contiki-main.o)
watchdog_periodic                                 contiki-srf06-cc26xx.a(contiki-watchdo)
                                                  contiki-srf06-cc26xx.a(rf-core.o)
                                                  contiki-srf06-cc26xx.a(contikimac.o)
                                                  contiki-srf06-cc26xx.a(sicslowpan.o)
                                                  contiki-srf06-cc26xx.a(lpm.o)
                                                  contiki-srf06-cc26xx.a(contiki-main.o)
watchdog_reboot                                   contiki-srf06-cc26xx.a(contiki-watchdo)
watchdog_start                                    contiki-srf06-cc26xx.a(contiki-watchdo)
                                                  contiki-srf06-cc26xx.a(contiki-main.o)
watchdog_stop                                     contiki-srf06-cc26xx.a(contiki-watchdo)
